(lp0
S'american company'
p1
aS'dna'
p2
aS'yahoo'
p3
aS'poverty'
p4
aS'fix'
p5
aS'fii'
p6
aS'abbott'
p7
aS'meilensteine'
p8
aS'ahmed'
p9
aS'customer service'
p10
aS'marshall'
p11
aS'vietnamese'
p12
aS'sponsorship'
p13
aS'kilometer'
p14
aS'allowance'
p15
aS'advertisement'
p16
aS'generator'
p17
aS'brotherhood'
p18
aS'norm'
p19
aS'cynthia'
p20
aS'inmarsat'
p21
aS'sand'
p22
aS'asiapacific'
p23
aS'swipe'
p24
aS'tanker'
p25
aS'analog'
p26
aS'reibungslo'
p27
aS'bell'
p28
aS'belt'
p29
aS'kremlin'
p30
aVgold import
p31
aS'revision'
p32
aS'consumer demand'
p33
aS'victor'
p34
aS'alexei'
p35
aVtreasury yield
p36
aVmarket sentiment
p37
aS'placement'
p38
aS'cvc'
p39
aS'zimbabwe'
p40
aS'passion'
p41
aS'integrity'
p42
aS'discrimination'
p43
aS'chairperson'
p44
aS'rainfall'
p45
aS'dmitry'
p46
aS'weichen fur'
p47
aS'taliban'
p48
aS'fargo'
p49
aS'schlecht'
p50
aS'middle class'
p51
aS'metric'
p52
aS'haram'
p53
aS'silicon valley'
p54
aS'timeline'
p55
aS'heavy'
p56
aS'phenomenon'
p57
aS'hype'
p58
aS'league'
p59
aS'north dakota'
p60
aS'euro area'
p61
aS'gaddafi'
p62
aS'silence'
p63
aS'similar'
p64
aS'bidding war'
p65
aS'camera'
p66
aS'policy stance'
p67
aS'tobacco'
p68
aS'controller'
p69
aS'speaker'
p70
aS'rift'
p71
aS'mindesten'
p72
aS'earnings report'
p73
aS'void'
p74
aS'webbrowser'
p75
aS'roof'
p76
aS'root'
p77
aS'crew'
p78
aS'aide'
p79
aS'debit'
p80
aS'bevorzugte'
p81
aS'failing'
p82
aS'submission'
p83
aS'income growth'
p84
aS'assurance'
p85
aS'squad'
p86
aS'interior'
p87
aVequity fund
p88
aS'gem'
p89
aVlikeforlike sale
p90
aS'sean'
p91
aS'seal'
p92
aS'wonder'
p93
aS'cotton'
p94
aS'nomiyama'
p95
aS'breite'
p96
aVhome loan
p97
aS'tennessee'
p98
aS'cocacola'
p99
aS'yard'
p100
aS'seinem'
p101
aS'seinen'
p102
aS'uganda'
p103
aS'wurde'
p104
aS'pradesh'
p105
aS'hair'
p106
aS'seien'
p107
aS'lieutenant'
p108
aS'direct'
p109
aS'grenade'
p110
aS'suburb'
p111
aS'punkten'
p112
aS'fault'
p113
aS'teenager'
p114
aS'petaling'
p115
aS'economic cooperation'
p116
aS'andy'
p117
aS'loophole'
p118
aS'eagle'
p119
aS'east africa'
p120
aS'icon'
p121
aS'libya'
p122
aS'baseband'
p123
aS'cast'
p124
aS'polish'
p125
aS'justice department'
p126
aS'glimpse'
p127
aS'apartment'
p128
aS'infringement'
p129
aS'haruhiko'
p130
aS'susan'
p131
aS'shirt'
p132
aVhectare
p133
aS'plaza'
p134
aS'construction union'
p135
aS'successor'
p136
aS'google hat seinen webbrowser chrome'
p137
aS'cuba'
p138
aVpower plant
p139
aS'warming'
p140
aS'spiral'
p141
aS'drill'
p142
aS'swing'
p143
aS'wisdom'
p144
aS'united nations'
p145
aS'reactor'
p146
aS'menu'
p147
aS'zahlen'
p148
aS'parameter'
p149
aS'surplus'
p150
aS'allocation'
p151
aS'costa'
p152
aVopposition party
p153
aS'advertisement feature'
p154
aS'fairness'
p155
aS'lockheed'
p156
aS'backlash'
p157
aS'compliance'
p158
aS'imaging'
p159
aS'unicredit'
p160
aS'oil production'
p161
aS'track record'
p162
aS'set'
p163
aS'sex'
p164
aS'sec'
p165
aS'sen'
p166
aS'sei'
p167
aS'funf'
p168
aS'walmart'
p169
aS'wildlife'
p170
aS'research note'
p171
aS'garden'
p172
aS'notebook'
p173
aS'installment'
p174
aS'frequency'
p175
aS'royal bank'
p176
aS'ihr'
p177
aS'ihs'
p178
aS'business environment'
p179
aS'blockbuster'
p180
aS'mechanism'
p181
aS'trajectory'
p182
aS'atlanta'
p183
aS'recognise'
p184
aS'pursuit'
p185
aS'smoke'
p186
aS'denver'
p187
aS'income tax'
p188
aS'arab'
p189
aS'portuguese'
p190
aS'south korea'
p191
aS'reception'
p192
aS'modernisation'
p193
aS'window'
p194
aS'airasia'
p195
aS'breakfast'
p196
aS'wurden'
p197
aS'austerity'
p198
aS'marks'
p199
aS'fool'
p200
aS'cypros'
p201
aS'grocer'
p202
aS'battery'
p203
aS'maintenance'
p204
aVquarter result
p205
aS'mitsubishi'
p206
aS'libor'
p207
aS'congo'
p208
aS'demise'
p209
aS'arabian'
p210
aS'evolution'
p211
aS'benchmark bse sensex'
p212
aS'accountability'
p213
aS'qualcomm'
p214
aS'reflection'
p215
aS'tax rate'
p216
aS'upswing'
p217
aS'monster'
p218
aS'vulnerability'
p219
aS'decree'
p220
aS'matteo'
p221
aS'visitor'
p222
aS'timeframe'
p223
aS'distinction'
p224
aS'alstom'
p225
aS'burn'
p226
aS'wells fargo'
p227
aS'somalia'
p228
aS'majority stake'
p229
aS'framing'
p230
aS'calendar'
p231
aS'killing'
p232
aS'custody'
p233
aS'intermediary'
p234
aVfood price
p235
aS'christine'
p236
aS'sudan'
p237
aS'tycoon'
p238
aS'debt management risk'
p239
aS'white house'
p240
aS'girlfriend'
p241
aS'rwanda'
p242
aS'saudi'
p243
aS'setback'
p244
aS'commentary'
p245
aS'annexation'
p246
aS'klci'
p247
aVindustry source
p248
aS'afp'
p249
aS'hurdle'
p250
aS'tmp'
p251
aS'buy'
p252
aS'bus'
p253
aS'bug'
p254
aS'sale price'
p255
aS'stronghold'
p256
aS'technology sector'
p257
aS'euphoria'
p258
aS'deposit rate'
p259
aS'insurance company'
p260
aS'effectiveness'
p261
aS'mixture'
p262
aS'palladium'
p263
aS'angle'
p264
aS'pharmacy'
p265
aS'exxon'
p266
aS'petrol'
p267
aS'limitation'
p268
aS'takeoff'
p269
aVrecord level
p270
aS'emphasis'
p271
aS'sterne'
p272
aVpeace talk
p273
aS'chipotle'
p274
aS'virginia'
p275
aS'jun'
p276
aS'environmentalist'
p277
aS'isc business technology ag'
p278
aS'drugmaker'
p279
aS'investment strategist'
p280
aS'qaeda'
p281
aS'newsletter'
p282
aS'van'
p283
aS'centrica'
p284
aS'north carolina'
p285
aS'cohen'
p286
aS'bias'
p287
aS'mutual'
p288
aS'extension'
p289
aVbusiness owner
p290
aS'bank account'
p291
aVcapital inflow
p292
aS'clarity'
p293
aS'second'
p294
aS'privilege'
p295
aS'periphery'
p296
aS'nda government'
p297
aS'opec'
p298
aS'open'
p299
aS'billiton'
p300
aS'mask'
p301
aS'welfare'
p302
aS'nvidia'
p303
aS'assad'
p304
aS'contingency'
p305
aS'kennzahlen'
p306
aS'bernstein'
p307
aS'enemy'
p308
aS'guinea'
p309
aS'march quarter'
p310
aS'reddy'
p311
aS'crackdown'
p312
aS'prosecution'
p313
aS'solidarity'
p314
aS'warfare'
p315
aS'accuracy'
p316
aS'chinese economy'
p317
aS'downgrade'
p318
aS'wti'
p319
aS'matthew'
p320
aS'banco'
p321
aS'campus'
p322
aS'irish'
p323
aS'conglomerate'
p324
aS'veto'
p325
aS'fuelled'
p326
aVprice hike
p327
aS'customer base'
p328
aS'mukherjee'
p329
aS'retreat'
p330
aS'true'
p331
aS'healthcare sector'
p332
aS'cargo'
p333
aS'havoc'
p334
aS'investment cycle'
p335
aS'cat'
p336
aS'cac'
p337
aS'district court'
p338
aS'carl'
p339
aS'nutrition'
p340
aS'privacy'
p341
aS'hintergrund'
p342
aS'wolf'
p343
aS'reliability'
p344
aS'invasion'
p345
aS'revenue growth'
p346
aS'evasion'
p347
aS'popularity'
p348
aS'assertion'
p349
aS'alexander'
p350
aS'withdrawal'
p351
aS'jeff'
p352
aS'bidding'
p353
aS'specialty'
p354
aS'european parliament'
p355
aS'uber'
p356
aS'suite'
p357
aS'nokia'
p358
aS'serbia'
p359
aS'stride'
p360
aVrecord low
p361
aVbetterranked stock
p362
aS'sara'
p363
aS'vince'
p364
aS'implementiert'
p365
aS'delaware'
p366
aS'adult'
p367
aS'programming'
p368
aS'meat'
p369
aS'meal'
p370
aS'business confidence'
p371
aS'stifel'
p372
aS'realestate'
p373
aS'aktive'
p374
aS'warehouse'
p375
aS'excellence'
p376
aS'tandem'
p377
aS'pitch'
p378
aS'sensor'
p379
aS'cheese'
p380
aS'consumer price index'
p381
aS'friedman'
p382
aS'relative'
p383
aS'ignition'
p384
aS'strip'
p385
aVstriker
p386
aS'alberta'
p387
aS'sbi'
p388
aS'commerce department'
p389
aS'jane'
p390
aS'prevention'
p391
aS'russian president vladimir putin'
p392
aS'mirror'
p393
aS'tsunami'
p394
aS'pepsico'
p395
aS'jimmy'
p396
aS'lesson'
p397
aS'luis'
p398
aS'iii'
p399
aS'konsumguter'
p400
aS'household income'
p401
aS'data breach'
p402
aS'confusion'
p403
aS'googl'
p404
aS'beer'
p405
aS'rajan'
p406
aVindian stock
p407
aS'preview'
p408
aS'news finanznachricht ubermittelt durch'
p409
aS'urban'
p410
aS'detection'
p411
aS'weak'
p412
aS'hunt'
p413
aS'plus'
p414
aS'wireless'
p415
aS'ibrahim'
p416
aS'ringgit'
p417
aS'societe generale'
p418
aS'mobilen'
p419
aS'copy'
p420
aS'pot'
p421
aS'pop'
p422
aS'ltro'
p423
aS'tiger'
p424
aS'junta'
p425
aS'rose'
p426
aS'ross'
p427
aS'nissan'
p428
aS'profit warning'
p429
aS'bharatiya'
p430
aS'crush'
p431
aS'style'
p432
aS'shipment'
p433
aS'feed'
p434
aS'sympathy'
p435
aS'georgia'
p436
aS'simon'
p437
aS'januarymarch quarter'
p438
aS'general motors co'
p439
aS'module'
p440
aS'energy information administration'
p441
aS'diplomat'
p442
aS'margaret'
p443
aS'theory'
p444
aS'triple'
p445
aS'west texas intermediate'
p446
aS'object'
p447
aS'confederation'
p448
aS'bust'
p449
aS'bush'
p450
aS'bashar'
p451
aS'tune'
p452
aS'flood'
p453
aS'moglichkeit'
p454
aS'funeral'
p455
aS'stuart'
p456
aS'alcoa'
p457
aS'realization'
p458
aS'financier'
p459
aS'salt'
p460
aS'outsourcing'
p461
aS'jobs'
p462
aS'boat'
p463
aS'iconic'
p464
aS'emission'
p465
aS'abduction'
p466
aVgovernment force
p467
aS'kingdom'
p468
aS'stack'
p469
aVnetwork operator
p470
aS'bjpled'
p471
aS'broadband'
p472
aS'custom'
p473
aS'agm'
p474
aS'oracle'
p475
aS'defeat'
p476
aS'certificate'
p477
aS'cagr'
p478
aS'undertaking'
p479
aS'atmosphere'
p480
aS'afghan'
p481
aS'payout'
p482
aS'delegate'
p483
aS'steering'
p484
aS'uae'
p485
aS'new delhi'
p486
aS'misconduct'
p487
aS'prime minister shinzo abe'
p488
aS'aldi'
p489
aS'independent'
p490
aS'purchase price'
p491
aS'deputy director'
p492
aS'slogan'
p493
aS'accordance'
p494
aS'republication'
p495
aS'thompson'
p496
aS'yoy'
p497
aS'auslastungslucken'
p498
aS'geschaftsbereiche'
p499
aS'cosmetic'
p500
aS'boycott'
p501
aS'businessmen'
p502
aS'grocery'
p503
aS'alpha'
p504
aS'alsisi'
p505
aS'berkshire'
p506
aS'bureaucracy'
p507
aS'kenny'
p508
aS'helicopters'
p509
aS'magnitude'
p510
aS'itplattformen'
p511
aS'durable'
p512
aS'singh'
p513
aS'tripoli'
p514
aS'zwei'
p515
aS'andre'
p516
aS'gasoline'
p517
aS'german chancellor angela merkel'
p518
aS'nevada'
p519
aS'petronas'
p520
aS'super'
p521
aS'technique'
p522
aS'tuesday morning'
p523
aS'enthusiasm'
p524
aS'standalone'
p525
aS'girl'
p526
aVcapital market
p527
aS'hostage'
p528
aS'merkel'
p529
aS'marc'
p530
aS'mary'
p531
aS'perth'
p532
aS'bondbuying'
p533
aS'secrecy'
p534
aS'wsj'
p535
aS'ranger'
p536
aS'debt crisis'
p537
aS'lloyds'
p538
aS'acting'
p539
aS'ramped'
p540
aS'separation'
p541
aS'tasked'
p542
aVjob data
p543
aS'umfassendem'
p544
aS'qatari'
p545
aS'janet'
p546
aS'crude oil'
p547
aS'thought'
p548
aS'forestry'
p549
aS'kick'
p550
aS'blick'
p551
aS'gate'
p552
aS'djia'
p553
aS'availability'
p554
aS'new york city'
p555
aS'craft'
p556
aS'weren'
p557
aS'donald'
p558
aS'cnn'
p559
aS'booking'
p560
aS'free trading education'
p561
aVservice sector
p562
aS'baseball'
p563
aS'memory'
p564
aS'birthday'
p565
aS'merrill'
p566
aS'plastic'
p567
aS'trafficking'
p568
aS'senior'
p569
aS'wood'
p570
aS'fmcg'
p571
aS'caribbean'
p572
aS'bursa malaysia'
p573
aS'aaron'
p574
aS'ticker'
p575
aS'terror'
p576
aS'buck'
p577
aS'lawsky'
p578
aS'women'
p579
aS'viel'
p580
aS'grain'
p581
aS'juni'
p582
aS'junk'
p583
aS'golden'
p584
aS'water supply'
p585
aS'orleans'
p586
aS'berenberg'
p587
aS'terrorist'
p588
aS'survival'
p589
aS'shadow'
p590
aS'azn'
p591
aS'paperwork'
p592
aS'shumaker'
p593
aS'civilian'
p594
aS'gordon'
p595
aS'emotion'
p596
aS'dimension'
p597
aS'rush'
p598
aS'statebacked'
p599
aS'midwest'
p600
aS'clock'
p601
aS'also'
p602
aS'sunni'
p603
aS'pensioner'
p604
aVgas company
p605
aS'sharma'
p606
aS'chan'
p607
aS'chat'
p608
aS'cobalt'
p609
aS'lock'
p610
aS'directv'
p611
aS'meantime'
p612
aS'boutique'
p613
aS'adaptive'
p614
aS'mainland'
p615
aS'jay'
p616
aS'jan'
p617
aS'rapper'
p618
aS'wer'
p619
aS'roadblock'
p620
aS'coffee'
p621
aVcoffer
p622
aS'slew'
p623
aS'valeant pharmaceuticals international inc'
p624
aS'timothy'
p625
aS'najib'
p626
aS'softwarelosungen'
p627
aS'unternehmensgruppe'
p628
aS'profession'
p629
aS'diligence'
p630
aS'mainland china'
p631
aS'lesimplementierung'
p632
aS'nod'
p633
aS'divergence'
p634
aS'invitation'
p635
aS'gemeinsame'
p636
aS'brunt'
p637
aS'stoppage'
p638
aS'internetplattformen'
p639
aS'vorjahreswert'
p640
aS'profit growth'
p641
aS'vielversprechende'
p642
aS'world war'
p643
aS'ideology'
p644
aS'stockpile'
p645
aS'arena'
p646
aS'attendance'
p647
aS'pact'
p648
aS'lok sabha'
p649
aS'stagnation'
p650
aS'mombasa'
p651
aS'bangladesh'
p652
aS'rivalry'
p653
aVcrew member
p654
aS'produkten'
p655
aS'immigrant'
p656
aS'destruction'
p657
aS'advertiser'
p658
aS'chrysler'
p659
aS'citi'
p660
aS'observation'
p661
aS'property market'
p662
aS'daher'
p663
aS'foray'
p664
aS'market leader'
p665
aS'allem'
p666
aVstimulus measure
p667
aS'anticipation'
p668
aS'sake'
p669
aS'salesforceplattform'
p670
aS'assault'
p671
aS'analytic'
p672
aS'awareness'
p673
aS'shareholding'
p674
aS'inspection'
p675
aVenergy company
p676
aS'logistic'
p677
aS'price level'
p678
aS'shape'
p679
aS'cue'
p680
aS'decisionmaking'
p681
aS'cafe'
p682
aS'ceasefire'
p683
aS'tsn'
p684
aS'tsb'
p685
aS'industry leader'
p686
aS'boundary'
p687
aS'dazu gehoren grosse konzerne'
p688
aS'excise'
p689
aS'energy sector'
p690
aS'justin'
p691
aS'price war'
p692
aS'morningstar'
p693
aS'growth forecast'
p694
aS'magnate'
p695
aS'spdr'
p696
aS'filter'
p697
aS'ocean'
p698
aS'wedding'
p699
aS'discovery'
p700
aS'batterie'
p701
aS'wenig'
p702
aS'broadcaster'
p703
aS'dinner'
p704
aS'setting'
p705
aS'west bank'
p706
aS'athens'
p707
aS'ppc'
p708
aS'donation'
p709
aVequity firm
p710
aVvaluation level
p711
aS'jewellery'
p712
aS'dairy'
p713
aS'flaw'
p714
aS'flag'
p715
aS'lighting'
p716
aS'avenue'
p717
aS'hang seng index'
p718
aVinvestment decision
p719
aS'world bank'
p720
aS'cement'
p721
aS'entitlement'
p722
aS'bond market'
p723
aS'republican'
p724
aS'progressive'
p725
aS'speculator'
p726
aS'price rise'
p727
aS'morning trading'
p728
aS'chief executive officer'
p729
aS'semiconductor'
p730
aS'weiterlesen'
p731
aS'victoria'
p732
aS'fair'
p733
aS'criticised'
p734
aS'savio'
p735
aS'facebookcom'
p736
aS'job creation'
p737
aS'hohe'
p738
aS'breakdown'
p739
aS'neighborhood'
p740
aS'grouping'
p741
aS'dafur'
p742
aS'axis'
p743
aVcheckpoint
p744
aS'energy security'
p745
aS'appreciation'
p746
aS'play'
p747
aS'french bank'
p748
aS'conservative'
p749
aS'kachelmodu'
p750
aS'led'
p751
aS'lee'
p752
aS'leg'
p753
aS'isc business technology ag  schlagwort e quartalsergebnis isc business technology ag'
p754
aS'chancellor'
p755
aS'takeover bid'
p756
aS'sister'
p757
aVrate rise
p758
aS'inzwischen'
p759
aS'cow'
p760
aS'cox'
p761
aS'coo'
p762
aS'buffett'
p763
aS'eps'
p764
aS'epa'
p765
aS'hills'
p766
aS'tesla'
p767
aS'jahre'
p768
aS'zhang'
p769
aS'blast'
p770
aS'collateral'
p771
aVprice cut
p772
aS'dxy'
p773
aS'icici'
p774
aS'merger activity'
p775
aS'veteran'
p776
aS'sehr'
p777
aS'foothold'
p778
aS'american society'
p779
aS'lady'
p780
aS'hurry'
p781
aVfederal reserve official
p782
aS'einem negativen deckungsbeitrag'
p783
aS'sheikh'
p784
aS'depth'
p785
aS'experiment'
p786
aS'mode'
p787
aS'commonwealth'
p788
aS'austin'
p789
aS'law firm'
p790
aVrepercussion
p791
aS'mail'
p792
aS'rescue'
p793
aS'pharma'
p794
aS'outperformance'
p795
aS'schweizerische unternehmensgruppe'
p796
aS'hydrocarbon'
p797
aS'scrap'
p798
aS'budget deficit'
p799
aS'chicagobased'
p800
aS'pandora'
p801
aS'markt'
p802
aS'wallet'
p803
aS'summary'
p804
aS'keqiang'
p805
aS'fenster'
p806
aS'pharmaceutical'
p807
aS'verfugt'
p808
aS'bernadette baum'
p809
aS'mario draghi'
p810
aVtrade secret
p811
aS'luke'
p812
aS'latter'
p813
aS'rejection'
p814
aS'private'
p815
aS'konkurrenz'
p816
aS'philosophy'
p817
aS'criminal'
p818
aS'anticorruption'
p819
aS'deutschsprachigen'
p820
aS'judiciary'
p821
aS'variation'
p822
aS'ceiling'
p823
aS'campbell'
p824
aS'corn'
p825
aS'fitzgerald'
p826
aS'telefonica'
p827
aS'henderson'
p828
aS'philippines'
p829
aS'rio tinto'
p830
aS'kerry'
p831
aS'fallt'
p832
aS'recipe'
p833
aS'senator'
p834
aVcaput
p835
aS'westpac'
p836
aS'morrison'
p837
aS'stock price performance'
p838
aS'taylor'
p839
aS'threequarter'
p840
aS'dot'
p841
aS'oil output'
p842
aS'bharatiya janata party'
p843
aS'vincent'
p844
aS'batch'
p845
aS'afternoon trade'
p846
aS'george osborne'
p847
aVpundit
p848
aS'feb'
p849
aS'few'
p850
aS'hazard'
p851
aS'contention'
p852
aS'msft'
p853
aS'outflow'
p854
aS'layer'
p855
aS'al qaeda'
p856
aS'column'
p857
aS'darau'
p858
aS'caution'
p859
aS'regional'
p860
aS'net income'
p861
aS'willingness'
p862
aS'taxation'
p863
aS'nationwide'
p864
aS'friday morning'
p865
aS'nova'
p866
aS'veranderungen'
p867
aS'jenkins'
p868
aS'tendency'
p869
aS'overhaul'
p870
aS'bankruptcy'
p871
aS'hillshire brands'
p872
aS'allen'
p873
aS'masse'
p874
aS'bank lending'
p875
aS'european central bank meeting'
p876
aS'vacuum'
p877
aS'credit rating'
p878
aS'lens'
p879
aS'commander'
p880
aS'fundamental'
p881
aS'turbine'
p882
aS'nifty'
p883
aS'defect'
p884
aS'cry'
p885
aS'palm'
p886
aS'palo'
p887
aS'writedown'
p888
aS'coal mine'
p889
aS'sourcing'
p890
aS'fence'
p891
aS'toshiba'
p892
aS'jedoch'
p893
aS'hier'
p894
aVearnings estimate
p895
aS'meldepflichten'
p896
aVspec
p897
aS'crunch'
p898
aS'offshore'
p899
aS'singaporean'
p900
aS'albert'
p901
aS'environmental protection agency'
p902
aS'moore'
p903
aS'precedent'
p904
aS'bean'
p905
aS'michelle'
p906
aS'upgrade'
p907
aS'comeback'
p908
aS'trick'
p909
aS'recipient'
p910
aS'proponent'
p911
aS'commonwealth bank'
p912
aS'mitteilung'
p913
aS'stanford'
p914
aS'fiscal'
p915
aS'payment system'
p916
aS'douglas'
p917
aVpolicy option
p918
aS'zwischen'
p919
aS'ghanaian'
p920
aS'soybean'
p921
aS'reader'
p922
aS'preparation'
p923
aS'london stock exchange'
p924
aS'seed'
p925
aS'hunger'
p926
aS'federal communications commission'
p927
aS'rubber'
p928
aS'lowe'
p929
aS'payroll report'
p930
aS'democrat'
p931
aS'hbo'
p932
aS'membership'
p933
aS'zurich'
p934
aS'branche'
p935
aS'pwc'
p936
aS'legitimacy'
p937
aS'macro'
p938
aS'pile'
p939
aS'pill'
p940
aS'inbox'
p941
aS'zinc'
p942
aS'new york times'
p943
aS'networks'
p944
aS'lion'
p945
aS'complement'
p946
aVborrowing cost
p947
aS'presidentelect'
p948
aS'finanznachricht'
p949
aS'nsa'
p950
aS'nse'
p951
aS'steven'
p952
aS'nsw'
p953
aS'entwicklung'
p954
aS'democratic republic'
p955
aS'greater'
p956
aS'morris'
p957
aS'strategic'
p958
aVstate medium
p959
aS'mib'
p960
aS'mix'
p961
aS'sedan'
p962
aS'homeowner'
p963
aS'entfallt'
p964
aVasian stock
p965
aS'breiten'
p966
aS'sears'
p967
aS'eqs'
p968
aS'mynews hinzufugen'
p969
aS'pimco'
p970
aS'zuruck'
p971
aS'manipulation'
p972
aS'roadmap'
p973
aVinterest payment
p974
aS'encrypted'
p975
aS'hospitality'
p976
aS'parliamentary'
p977
aS'illinois'
p978
aS'gram'
p979
aS'shareholder meeting'
p980
aS'cooling'
p981
aS'time frame'
p982
aS'nest'
p983
aS'exklusiven'
p984
aS'tip'
p985
aS'furniture'
p986
aS'briefly'
p987
aS'healthkit'
p988
aS'goldman sachs group inc'
p989
aS'organiser'
p990
aS'market economist'
p991
aS'goyal'
p992
aS'downturn'
p993
aS'franchise'
p994
aVcompany plan
p995
aS'barometer'
p996
aS'political'
p997
aS'tablet'
p998
aS'vendor'
p999
aS'militia'
p1000
aS'brian'
p1001
aVtax break
p1002
aS'british pound'
p1003
aVmittelstandler sowie kleine betriebe au allen branchenpressekontakt isc business technology ag peter heinold wwwiscag heinold isc der
p1004
aS'depositor'
p1005
aS'freddie mac'
p1006
aS'unity'
p1007
aS'miami'
p1008
aS'anbindung'
p1009
aVright group
p1010
aS'revolt'
p1011
aS'atm'
p1012
aS'behavior'
p1013
aS'shale'
p1014
aS'frage'
p1015
aS'joseph'
p1016
aS'web site'
p1017
aS'draft'
p1018
aS'sao'
p1019
aS'sam'
p1020
aS'sap'
p1021
aS'knee'
p1022
aS'congressional'
p1023
aS'renewable'
p1024
aS'stone'
p1025
aS'technologies'
p1026
aS'cnbc'
p1027
aS'select'
p1028
aS'teen'
p1029
aS'schweiz'
p1030
aS'broadcasting'
p1031
aS'ite'
p1032
aS'ethiopia'
p1033
aS'headwind'
p1034
aS'southern district'
p1035
aS'hint'
p1036
aS'load'
p1037
aS'growth momentum'
p1038
aS'teilnahme'
p1039
aS'state department'
p1040
aS'pullback'
p1041
aS'athlete'
p1042
aS'pause'
p1043
aS'waste'
p1044
aS'diversification'
p1045
aS'arrest'
p1046
aS'police officer'
p1047
aS'human resources the treasury black helicopters  guide'
p1048
aS'price target'
p1049
aS'stocks'
p1050
aS'edward'
p1051
aS'renommierten'
p1052
aS'walsh'
p1053
aVrating score
p1054
aS'anderen'
p1055
aS'sony'
p1056
aS'consumer spending'
p1057
aS'bailout'
p1058
aS'ebay'
p1059
aS'share sale'
p1060
aS'tax evasion'
p1061
aS'exile'
p1062
aS'shoulder'
p1063
aS'clinical'
p1064
aS'kenyan'
p1065
aS'nehmen'
p1066
aS'thai'
p1067
aS'samuel'
p1068
aS'carpet'
p1069
aS'partnering'
p1070
aS'gestelltso'
p1071
aS'egg'
p1072
aS'capital expenditure'
p1073
aS'largecap'
p1074
aS'mobile'
p1075
aS'bull market'
p1076
aS'fda'
p1077
aS'fdi'
p1078
aS'metals'
p1079
aS'betriebe'
p1080
aS'austria'
p1081
aS'international air transport association'
p1082
aS'labor statistics'
p1083
aS'sustainability'
p1084
aS'aspiration'
p1085
aS'impression'
p1086
aS'joint'
p1087
aS'diversity'
p1088
aS'networking'
p1089
aS'president vladimir putin'
p1090
aS'frankfurt'
p1091
aS'teaching'
p1092
aS'better'
p1093
aS'einer'
p1094
aS'einen'
p1095
aS'einem'
p1096
aS'historian'
p1097
aVder produzierenden industrie al auch
p1098
aS'prakash'
p1099
aS'thursday morning'
p1100
aS'resurgence'
p1101
aS'flexibility'
p1102
aS'licensing'
p1103
aS'roundup'
p1104
aS'realty'
p1105
aS'beim'
p1106
aS'macroeconomic'
p1107
aS'kkr'
p1108
aVair bag
p1109
aS'theatre'
p1110
aS'repo'
p1111
aS'gates'
p1112
aS'abc'
p1113
aS'app store'
p1114
aS'abs'
p1115
aS'abu'
p1116
aVtrade deficit
p1117
aS'favourable'
p1118
aS'bats global markets'
p1119
aS'youth'
p1120
aS'philippine'
p1121
aS'emini'
p1122
aS'bin'
p1123
aS'server'
p1124
aS'tradeoff'
p1125
aS'acre'
p1126
aS'sisi'
p1127
aS'stoxx'
p1128
aS'wales'
p1129
aS'inspector'
p1130
aS'expiry'
p1131
aVcost saving
p1132
aS'henry'
p1133
aS'impala platinum'
p1134
aS'advanced'
p1135
aS'verbreitert'
p1136
aS'food inflation'
p1137
aS'multiple'
p1138
aS'ukrainian'
p1139
aS'entrant'
p1140
aS'aluminum'
p1141
aS'columnist'
p1142
aVtrading session
p1143
aS'howard'
p1144
aS'jpmorgan chase'
p1145
aS'shouldn'
p1146
aS'itberatungshausern'
p1147
aS'framework'
p1148
aS'script'
p1149
aVshilling
p1150
aS'rio'
p1151
aS'ril'
p1152
aS'rig'
p1153
aS'retiree'
p1154
aS'goodwill'
p1155
aS'metro'
p1156
aS'warehousing'
p1157
aS'metre'
p1158
aS'proof'
p1159
aS'constituent'
p1160
aS'powerhouse'
p1161
aS'dependence'
p1162
aS'registration'
p1163
aS'exchange commission'
p1164
aS'text message'
p1165
aS'projection'
p1166
aS'telekom'
p1167
aS'lasst'
p1168
aS'hay'
p1169
aS'oversight'
p1170
aS'goods'
p1171
aS'shakeup'
p1172
aS'short'
p1173
aS'watcher'
p1174
aS'scott'
p1175
aS'hyderabad'
p1176
aS'spendiert'
p1177
aS'mobilen geraten sowie'
p1178
aS'bureaucrat'
p1179
aS'uranium'
p1180
aS'algorithm'
p1181
aS'exchangetraded'
p1182
aS'turkish'
p1183
aS'peninsula'
p1184
aS'credit facility'
p1185
aS'tape'
p1186
aS'ohio'
p1187
aS'midland'
p1188
aS'crack'
p1189
aS'cme'
p1190
aS'cmc'
p1191
aS'erp'
p1192
aS'era'
p1193
aS'barrier'
p1194
aS'blackout'
p1195
aS'blackrock'
p1196
aS'tony'
p1197
aS'cook'
p1198
aS'forderprojekten'
p1199
aS'exchange board'
p1200
aS'catalyst'
p1201
aS'boon'
p1202
aS'brain'
p1203
aS'challenger'
p1204
aS'gibson'
p1205
aS'outcry'
p1206
aS'interbank'
p1207
aS'greece'
p1208
aS'burst'
p1209
aS'bursa'
p1210
aVside effect
p1211
aS'pride corp'
p1212
aS'roll'
p1213
aS'backup'
p1214
aVtelecom company
p1215
aS'erfolgreich'
p1216
aS'twothirds'
p1217
aS'absence'
p1218
aS'grant'
p1219
aS'grand'
p1220
aS'composition'
p1221
aS'withholding'
p1222
aS'tweeted'
p1223
aS'clark'
p1224
aS'slide'
p1225
aS'switzerland'
p1226
aS'surface'
p1227
aS'northwest'
p1228
aS'dakota'
p1229
aS'shale gas'
p1230
aS'disappearance'
p1231
aS'cocoa'
p1232
aS'statement today'
p1233
aS'auf'
p1234
aS'third'
p1235
aS'onethird'
p1236
aS'marie'
p1237
aS'zealand'
p1238
aS'sebi'
p1239
aS'goodman'
p1240
aS'refiner'
p1241
aS'fraction'
p1242
aVgovernment bond
p1243
aS'profitbooking'
p1244
aS'faction'
p1245
aS'sovereignty'
p1246
aS'dennis'
p1247
aS'oncology'
p1248
aS'lunch'
p1249
aS'manifesto'
p1250
aS'auch'
p1251
aS'threshold'
p1252
aS'label'
p1253
aS'jerusalem'
p1254
aS'finanznachrichten'
p1255
aVoil company
p1256
aS'comfort'
p1257
aS'kaufen'
p1258
aS'abu dhabi'
p1259
aS'berichten'
p1260
aS'jbs'
p1261
aS'snow'
p1262
aS'murphy'
p1263
aS'dagegen'
p1264
aS'disease'
p1265
aS'grosse'
p1266
aS'british government'
p1267
aVamenity
p1268
aS'dubai'
p1269
aS'indian rupee'
p1270
aS'discretion'
p1271
aS'kentucky'
p1272
aS'description'
p1273
aS'cent growth'
p1274
aS'eigene'
p1275
aS'follower'
p1276
aS'erosion'
p1277
aS'prei'
p1278
aVwind farm
p1279
aS'investment advice'
p1280
aS'gas industry'
p1281
aS'refinery'
p1282
aS'goog'
p1283
aS'tower'
p1284
aS'repayment'
p1285
aVconsensus estimate
p1286
aS'paddy'
p1287
aS'coach'
p1288
aS'montebourg'
p1289
aS'somebody'
p1290
aS'naturlich'
p1291
aS'trackpad'
p1292
aS'automobile'
p1293
aS'impacting'
p1294
aS'warrant'
p1295
aVaccount interest rate
p1296
aS'machinery'
p1297
aS'self'
p1298
aS'virus'
p1299
aS'bulletin'
p1300
aS'occupation'
p1301
aS'whilst'
p1302
aS'chaos'
p1303
aS'prospectus'
p1304
aS'benchmark us'
p1305
aS'pipe'
p1306
aS'telco'
p1307
aS'clutch'
p1308
aS'telegraph'
p1309
aS'wing'
p1310
aS'laboratory'
p1311
aS'lpg'
p1312
aS'advisory'
p1313
aS'bomb'
p1314
aS'hungary'
p1315
aS'normandy'
p1316
aS'chile'
p1317
aS'cpi'
p1318
aS'hillshire brands co'
p1319
aS'valeant'
p1320
aS'autumn'
p1321
aS'price tag'
p1322
aS'bhp'
p1323
aS'tpg'
p1324
aS'status eroffnet vielversprechende unternehmerische moglichkeiten'
p1325
aVtax revenue
p1326
aS'edition'
p1327
aS'authorised'
p1328
aS'jenner'
p1329
aS'nextgeneration'
p1330
aS'kunden'
p1331
aS'entsprechende'
p1332
aS'financial services'
p1333
aS'hyundai'
p1334
aS'information technology'
p1335
aS'tariff'
p1336
aS'predecessor'
p1337
aS'physician'
p1338
aS'raid'
p1339
aS'rain'
p1340
aS'mohamed'
p1341
aVboard member
p1342
aS'reset'
p1343
aS'flash'
p1344
aS'misconception'
p1345
aS'zug'
p1346
aS'osborne'
p1347
aS'ethic'
p1348
aS'gambling'
p1349
aS'injury'
p1350
aS'pub'
p1351
aS'audit'
p1352
aS'juice'
p1353
aS'copyright'
p1354
aS'anthony'
p1355
aS'donor'
p1356
aS'clout'
p1357
aS'cloud'
p1358
aS'soviet union'
p1359
aS'fate'
p1360
aS'cleveland'
p1361
aS'nintendo'
p1362
aS'investment strategy'
p1363
aS'www'
p1364
aS'notification'
p1365
aS'offer price'
p1366
aS'skin'
p1367
aS'ping'
p1368
aS'immer'
p1369
aS'chamber'
p1370
aS'deadlock'
p1371
aS'lifetime'
p1372
aS'sondern'
p1373
aS'alibaba'
p1374
aVwestern sanction
p1375
aS'existence'
p1376
aS'polling'
p1377
aS'hgbdie'
p1378
aS'federal reserve bank'
p1379
aS'tender'
p1380
aS'produzierenden'
p1381
aS'integration'
p1382
aS'bruce'
p1383
aS'possession'
p1384
aS'fisher'
p1385
aS'read tip'
p1386
aS'knight'
p1387
aS'muammar'
p1388
aS'patrol'
p1389
aS'environmental'
p1390
aS'spotify'
p1391
aS'reuters poll'
p1392
aS'eigene itplattformen'
p1393
aS'kidnapping'
p1394
aS'bench'
p1395
aS'tweet'
p1396
aS'renaissance'
p1397
aS'heinold'
p1398
aS'schweizer'
p1399
aVhouse price
p1400
aS'wound'
p1401
aS'humanity'
p1402
aS'clash'
p1403
aS'lago'
p1404
aS'bargain'
p1405
aS'bullet'
p1406
aS'constitution'
p1407
aS'dreamliner'
p1408
aS'refund'
p1409
aS'realise'
p1410
aS'uprising'
p1411
aS'carney'
p1412
aS'pinnacle'
p1413
aS'capital economics'
p1414
aS'color'
p1415
aS'prayer'
p1416
aS'hindu'
p1417
aS'equation'
p1418
aS'ungeprufte'
p1419
aS'carmaker'
p1420
aS'brick'
p1421
aS'grievance'
p1422
aS'south america'
p1423
aS'mogul'
p1424
aS'packaging'
p1425
aS'crmsoftwarelosungen von sap'
p1426
aS'fishing'
p1427
aS'werk'
p1428
aS'slate'
p1429
aS'competitiveness'
p1430
aS'ring'
p1431
aS'weniger'
p1432
aS'etihad'
p1433
aS'vicepresident'
p1434
aS'david cameron'
p1435
aS'mrs'
p1436
aS'midst'
p1437
aS'footwear'
p1438
aS'prototype'
p1439
aS'aluminium'
p1440
aS'treasurie'
p1441
aVtrade union
p1442
aS'intel'
p1443
aS'harry'
p1444
aS'ebenso erfolgreich verliefen'
p1445
aS'seoul'
p1446
aS'exchange market'
p1447
aS'belief'
p1448
aS'banner'
p1449
aS'champion'
p1450
aS'laundering'
p1451
aS'psu'
p1452
aS'sprint'
p1453
aS'macbook'
p1454
aS'technical'
p1455
aS'asset value'
p1456
aS'truth'
p1457
aS'dismissal'
p1458
aS'principal'
p1459
aS'manufacturing activity'
p1460
aS'drink'
p1461
aS'commemoration'
p1462
aS'electronics'
p1463
aS'general motors'
p1464
aS'beach'
p1465
aS'carlyle'
p1466
aS'personality'
p1467
aS'brad'
p1468
aS'johansson'
p1469
aS'gregg'
p1470
aS'clothing'
p1471
aVbusiness opportunity
p1472
aS'album'
p1473
aS'israeli'
p1474
aS'fiat'
p1475
aS'eia'
p1476
aS'ein'
p1477
aS'cisco'
p1478
aS'internet access'
p1479
aS'cameron'
p1480
aVdividend payment
p1481
aS'duncan'
p1482
aS'phone interview'
p1483
aS'investor confidence'
p1484
aS'cnnmoney'
p1485
aVtechnology company
p1486
aS'messaging'
p1487
aS'chelsea'
p1488
aS'directorgeneral'
p1489
aS'trough'
p1490
aS'sausage'
p1491
aS'chang'
p1492
aS'narayana'
p1493
aS'eine'
p1494
aS'viktor'
p1495
aS'forex'
p1496
aS'insurgency'
p1497
aS'motive'
p1498
aS'glenn'
p1499
aS'neutral'
p1500
aS'diego'
p1501
aS'snowden'
p1502
aS'frenzy'
p1503
aS'bone'
p1504
aVworld leader
p1505
aS'lenovo'
p1506
aVcarbon emission
p1507
aS'specification'
p1508
aS'sugar'
p1509
aS'dialogue'
p1510
aS'erdogan'
p1511
aS'rupiah'
p1512
aS'kit'
p1513
aS'kim'
p1514
aS'kid'
p1515
aS'verge'
p1516
aS'tale'
p1517
aS'emailed'
p1518
aS'deutschland'
p1519
aS'dioxide'
p1520
aS'consortium'
p1521
aS'shoe'
p1522
aS'july delivery'
p1523
aS'grip'
p1524
aS'grid'
p1525
aS'epidemic'
p1526
aS'cent rise'
p1527
aS'emily'
p1528
aS'gas sector'
p1529
aS'premarket'
p1530
aS'fuelling'
p1531
aS'cameroon'
p1532
aS'ruin'
p1533
aS'brunei'
p1534
aS'ruler'
p1535
aS'discipline'
p1536
aS'boardroom'
p1537
aS'realisation'
p1538
aS'maryland'
p1539
aS'glaxosmithkline'
p1540
aS'trail'
p1541
aS'tumor'
p1542
aS'forest'
p1543
aS'bargaining'
p1544
aS'etwa'
p1545
aS'tshirt'
p1546
aS'juncker'
p1547
aS'motorola'
p1548
aS'certainty'
p1549
aS'aftermath'
p1550
aS'rand'
p1551
aS'tiananmen square'
p1552
aS'savings'
p1553
aS'upturn'
p1554
aS'megawatt'
p1555
aS'little'
p1556
aVmanager index
p1557
aS'pennsylvania'
p1558
aS'brent crude'
p1559
aS'pti'
p1560
aS'behaviour'
p1561
aVunemployment benefit
p1562
aS'essence'
p1563
aVjob report
p1564
aS'colombia'
p1565
aS'yingluck'
p1566
aS'press release'
p1567
aS'prescription'
p1568
aS'cheer'
p1569
aS'nairobi'
p1570
aS'anglo'
p1571
aS'universal'
p1572
aS'vat'
p1573
aS'lord'
p1574
aS'digit'
p1575
aS'bt india'
p1576
aS'hole'
p1577
aS'der breiten inhaltlichen wie personellen aufstellung'
p1578
aS'beauty'
p1579
aS'democratic'
p1580
aS'cornerstone'
p1581
aS'uttar'
p1582
aS'gruppe'
p1583
aS'explorer'
p1584
aS'formula'
p1585
aS'plea'
p1586
aS'artist'
p1587
aS'chromeausgabe'
p1588
aS'noon'
p1589
aS'elimination'
p1590
aS'smile'
p1591
aVstock index future
p1592
aS'social'
p1593
aS'dress'
p1594
aS'crmsoftwarelosungen'
p1595
aS'sapvar'
p1596
aS'robin'
p1597
aS'blueprint'
p1598
aS'superstar'
p1599
aS'fighter'
p1600
aS'northeast'
p1601
aS'traveller'
p1602
aS'denmark'
p1603
aS'kotak'
p1604
aS'etf'
p1605
aS'powered'
p1606
aVbusiness hour
p1607
aS'negligence'
p1608
aS'catherine'
p1609
aS'toll'
p1610
aS'eroffnet'
p1611
aS'merck'
p1612
aS'brake'
p1613
aS'photographer'
p1614
aS'western australia'
p1615
aVindian market
p1616
aS'resultierenden'
p1617
aS'assistance'
p1618
aS'southern'
p1619
aS'boko haram'
p1620
aS'marine'
p1621
aS'entwickler'
p1622
aVbank loan
p1623
aS'dealership'
p1624
aS'watchdog'
p1625
aS'balancing'
p1626
aS'french president francois hollande'
p1627
aS'reluctance'
p1628
aS'poland'
p1629
aS'pillar'
p1630
aS'national highway traffic safety administration'
p1631
aS'reed'
p1632
aS'verdict'
p1633
aS'cell'
p1634
aS'estafo'
p1635
aVtech company
p1636
aS'benchmark interest rate'
p1637
aS'earner'
p1638
aS'shortfall'
p1639
aVpenny
p1640
aS'nun'
p1641
aS'mit dem kunden tmp'
p1642
aS'captain'
p1643
aS'associated press'
p1644
aS'sectoral'
p1645
aS'task force'
p1646
aS'gazprom'
p1647
aS'anxiety'
p1648
aVsearch engine
p1649
aS'money laundering'
p1650
aS'kirti'
p1651
aS'suicide'
p1652
aS'alto'
p1653
aS'certification'
p1654
aS'conjunction'
p1655
aS'viele'
p1656
aS'hewlettpackard'
p1657
aS'railroad'
p1658
aS'burger'
p1659
aS'diamond'
p1660
aS'winter weather'
p1661
aS'downside risk'
p1662
aS'confectionery'
p1663
aS'directorate'
p1664
aS'rustenburg'
p1665
aS'textile'
p1666
aS'impetus'
p1667
aS'footing'
p1668
aS'jason'
p1669
aS'ingredient'
p1670
aS'huawei'
p1671
aS'leistungsspektrum'
p1672
aS'nobel'
p1673
aS'subscription'
p1674
aS'oneoff'
p1675
aS'onboard'
p1676
aS'linkedin'
p1677
aS'domestic'
p1678
aS'pin'
p1679
aS'pic'
p1680
aS'pie'
p1681
aS'pig'
p1682
aS'pit'
p1683
aS'correlation'
p1684
aS'interpretation'
p1685
aS'netherlands'
p1686
aS'oct'
p1687
aS'laptop'
p1688
aS'distributionsservice'
p1689
aS'trio'
p1690
aS'reply'
p1691
aS'streak'
p1692
aS'stream'
p1693
aS'parking'
p1694
aS'madrid'
p1695
aS'gibt'
p1696
aS'song'
p1697
aS'far'
p1698
aS'fat'
p1699
aS'sandwich'
p1700
aS'businessfriendly'
p1701
aS'president francois hollande'
p1702
aS'financial times'
p1703
aS'hinter'
p1704
aS'resilience'
p1705
aS'intraday'
p1706
aS'executive vice president'
p1707
aS'kommt'
p1708
aS'kann'
p1709
aS'boot'
p1710
aS'feasibility'
p1711
aS'cyprus'
p1712
aS'mason'
p1713
aS'spectrum'
p1714
aS'singer'
p1715
aS'dave'
p1716
aVportfolio manager
p1717
aS'standard chartered'
p1718
aS'outage'
p1719
aS'intent'
p1720
aS'phil'
p1721
aS'nova scotia'
p1722
aS'former'
p1723
aS'labor department'
p1724
aS'restoration'
p1725
aS'christine lagarde'
p1726
aS'januarymarch'
p1727
aS'moderation'
p1728
aS'new york mercantile exchange'
p1729
aS'melbourne'
p1730
aS'span'
p1731
aVeuropean country
p1732
aS'leicht'
p1733
aS'processor'
p1734
aS'annualised'
p1735
aS'greenhouse'
p1736
aS'walmart stores inc'
p1737
aS'investigator'
p1738
aS'resignation'
p1739
aS'refugee'
p1740
aS'turmoil'
p1741
aS'cylinder'
p1742
aS'wrongdoing'
p1743
aS'diplomacy'
p1744
aS'supplement'
p1745
aS'indian economy'
p1746
aS'janata'
p1747
aS'executive director'
p1748
aS'default'
p1749
aS'dotcom'
p1750
aS'revelation'
p1751
aS'diageo'
p1752
aS'phrase'
p1753
aVinternet company
p1754
aS'qualitatsorientierte'
p1755
aS'parisbased'
p1756
aS'car maker'
p1757
aS'negativen'
p1758
aS'injection'
p1759
aS'manhattan'
p1760
aS'ryan'
p1761
aS'gene'
p1762
aS'buildup'
p1763
aS'proxy'
p1764
aS'fare'
p1765
aS'namibian'
p1766
aS'starbuck'
p1767
aS'basis point'
p1768
aS'disruption'
p1769
aS'autonomy'
p1770
aS'telecommunication'
p1771
aS'temasek'
p1772
aS'also read'
p1773
aS'whatsapp'
p1774
aS'emailed statement'
p1775
aS'kospi'
p1776
aS'catchup'
p1777
aS'bailey'
p1778
aS'antony'
p1779
aS'objection'
p1780
aS'branchenpressekontakt'
p1781
aS'namibia'
p1782
aS'delegation'
p1783
aS'epic'
p1784
aS'rosneft'
p1785
aS'liegt'
p1786
aS'keinen'
p1787
aS'allergan inc'
p1788
aVdebt level
p1789
aS'mortar'
p1790
aS'drug administration'
p1791
aS'kraft'
p1792
aS'reuters sphere logo'
p1793
aS'patience'
p1794
aVenergy price
p1795
aVjean
p1796
aS'qingdao'
p1797
aS'unternehmensbeteiligung'
p1798
aS'deleted'
p1799
aS'bribery'
p1800
aS'abbas'
p1801
aS'ihre'
p1802
aS'boris'
p1803
aS'michigan'
p1804
aS'andrea'
p1805
aS'spirit'
p1806
aS'moon'
p1807
aS'minneapolis'
p1808
aS'uptick'
p1809
aS'supervision'
p1810
aS'shore'
p1811
aS'alcohol'
p1812
aS'faller'
p1813
aS'traveler'
p1814
aS'caching'
p1815
aS'sourced'
p1816
aS'chambers'
p1817
aS'beteiligung'
p1818
aS'vice chairman'
p1819
aS'delta'
p1820
aS'amazoncom'
p1821
aS'mainstream'
p1822
aS'survivor'
p1823
aS'apr'
p1824
aS'timetable'
p1825
aS'tenure'
p1826
aS'food security'
p1827
aS'holland'
p1828
aS'scrutiny'
p1829
aS'sowie'
p1830
aS'finanzbeteiligung'
p1831
aS'cliff'
p1832
aVmarket participant
p1833
aS'sme'
p1834
aS'niger'
p1835
aS'episode'
p1836
aS'trustee'
p1837
aS'beats electronics'
p1838
aS'paypal'
p1839
aS'grossen'
p1840
aS'petition'
p1841
aS'breakthrough'
p1842
aS'prince'
p1843
aS'yellen'
p1844
aS'vacation'
p1845
aS'kerala'
p1846
aS'neuen'
p1847
aS'neuer'
p1848
aS'depot'
p1849
aS'shelter'
p1850
aS'safety issue'
p1851
aS'umsatzruckgangen'
p1852
aS'business model'
p1853
aS'marriage'
p1854
aS'acceptance'
p1855
aS'clearance'
p1856
aS'mood'
p1857
aS'bird'
p1858
aS'ackman'
p1859
aS'reynolds'
p1860
aS'briefing'
p1861
aS'adjusted'
p1862
aS'business development'
p1863
aS'kabel'
p1864
aS'phd'
p1865
aS'discounter'
p1866
aS'rural'
p1867
aS'greek'
p1868
aS'green'
p1869
aS'greed'
p1870
aS'nigerian'
p1871
aS'brien'
p1872
aS'anders'
p1873
aS'nicolas'
p1874
aS'yanukovich'
p1875
aS'nomura'
p1876
aS'entrance'
p1877
aS'morgan stanley'
p1878
aS'geforce'
p1879
aS'proportion'
p1880
aS'husband'
p1881
aS'concert'
p1882
aS'comex'
p1883
aS'premarket trading'
p1884
aS'soil'
p1885
aS'hunter'
p1886
aS'fruit'
p1887
aS'mover'
p1888
aS'bomber'
p1889
aS'strong'
p1890
aS'church'
p1891
aS'neil'
p1892
aS'completion'
p1893
aS'buzz'
p1894
aVstudent loan
p1895
aS'transformation'
p1896
aS'qatar'
p1897
aS'caretaker'
p1898
aS'kilometre'
p1899
aS'pixel'
p1900
aS'tax regime'
p1901
aS'hadn'
p1902
aS'business today'
p1903
aS'novel'
p1904
aS'backlog'
p1905
aS'bombay'
p1906
aS'auszeichnung'
p1907
aS'bike'
p1908
aS'dawn'
p1909
aS'bidder'
p1910
aS'rreuterscom'
p1911
aS'tank'
p1912
aS'banking sector'
p1913
aS'reliance industries'
p1914
aS'walldorf'
p1915
aS'tracker'
p1916
aS'digital'
p1917
aS'taipei'
p1918
aS'outline'
p1919
aVpolicy measure
p1920
aS'factory sector'
p1921
aS'conspiracy'
p1922
aS'pain'
p1923
aS'black'
p1924
aS'tun'
p1925
aS'highlights'
p1926
aVconsumer price
p1927
aS'manuel'
p1928
aS'istanbul'
p1929
aS'cooperative'
p1930
aS'recycling'
p1931
aS'new york stock exchange'
p1932
aS'reward'
p1933
aS'examination'
p1934
aS'stockmarket'
p1935
aS'ankara'
p1936
aS'halt'
p1937
aS'praise'
p1938
aS'pmi'
p1939
aS'likelihood'
p1940
aS'lonmin'
p1941
aS'tide'
p1942
aS'transcript'
p1943
aS'maruti'
p1944
aS'arabia'
p1945
aS'las vegas'
p1946
aS'dennoch'
p1947
aS'bundle'
p1948
aS'mess'
p1949
aS'eric walsh'
p1950
aS'abe'
p1951
aS'liquor'
p1952
aS'weather condition'
p1953
aS'accumulation'
p1954
aS'dublin'
p1955
aS'riot'
p1956
aS'performer'
p1957
aS'pro'
p1958
aS'favor'
p1959
aS'identification'
p1960
aS'closure'
p1961
aS'medication'
p1962
aS'specialised'
p1963
aS'curve'
p1964
aS'removal'
p1965
aS'islam'
p1966
aS'circuit'
p1967
aS'janney'
p1968
aS'rucksack'
p1969
aS'decliners'
p1970
aS'mineral'
p1971
aS'sustainable'
p1972
aS'fast'
p1973
aS'issuer'
p1974
aS'quartalsergebni'
p1975
aVconsumer good
p1976
aS'thestreet ratings team'
p1977
aS'depreciation'
p1978
aS'employment report'
p1979
aS'kundenstruktur'
p1980
aS'resumption'
p1981
aS'dollar index'
p1982
aS'pocket'
p1983
aS'logic'
p1984
aS'stadium'
p1985
aS'idenix'
p1986
aS'substance'
p1987
aS'breadth'
p1988
aS'ungeprufte zahlen nach hgbdie isc business technology ag'
p1989
aS'scope'
p1990
aS'japanese company'
p1991
aS'lidl'
p1992
aS'precrisi'
p1993
aS'goahead'
p1994
aS'state bank'
p1995
aS'sterling'
p1996
aS'terry'
p1997
aS'sms'
p1998
aVchinese company
p1999
aS'nigel'
p2000
aS'pickup'
p2001
aS'deckungsbeitrag'
p2002
aS'poster'
p2003
aS'young'
p2004
aS'eve'
p2005
aS'national bureau'
p2006
aS'pledge'
p2007
aS'directive'
p2008
aS'sowohl'
p2009
aS'rotation'
p2010
aS'hathaway'
p2011
aS'outsider'
p2012
aVpassword
p2013
aS'amendment'
p2014
aS'bangkok'
p2015
aS'isc bt ag verfugt uber'
p2016
aS'ebook'
p2017
aS'leisure'
p2018
aS'macquarie'
p2019
aS'illustration'
p2020
aS'foe'
p2021
aS'uniform'
p2022
aS'mehrheitsbeteiligung'
p2023
aS'teilnahme der isc bt gruppe bei den forderprojekten cypros'
p2024
aS'repurchase'
p2025
aS'price range'
p2026
aS'wheat'
p2027
aS'iraq'
p2028
aS'british firm'
p2029
aS'uk economy'
p2030
aS'arsenal'
p2031
aS'zahlt'
p2032
aS'unternehmerische'
p2033
aS'stamp'
p2034
aVgrowth prospect
p2035
aS'larry'
p2036
aS'reservation'
p2037
aS'kate'
p2038
aS'barbara'
p2039
aS'stabilen'
p2040
aS'spree'
p2041
aS'ward'
p2042
aS'modiled'
p2043
aS'milan'
p2044
aS'kiev'
p2045
aS'london metal exchange'
p2046
aS'protocol'
p2047
aS'sogar'
p2048
aS'broadcast'
p2049
aS'potential'
p2050
aS'jefferies'
p2051
aS'rajiv'
p2052
aS'adler'
p2053
aS'file'
p2054
aS'angela'
p2055
aVcapital requirement
p2056
aS'larsen'
p2057
aS'toronto'
p2058
aS'theft'
p2059
aS'erste kennzahlen'
p2060
aVasian market
p2061
aS'opponent'
p2062
aS'convention'
p2063
aS'wachstum'
p2064
aS'livelihood'
p2065
aS'democracy'
p2066
aS'fbm klci'
p2067
aS'golf'
p2068
aS'jack'
p2069
aS'fairfax'
p2070
aS'theme'
p2071
aS'eurozone economy'
p2072
aS'capitalization'
p2073
aS'proceeding'
p2074
aS'seeker'
p2075
aS'innovativen'
p2076
aS'rate increase'
p2077
aVinflation expectation
p2078
aS'fca'
p2079
aS'fcc'
p2080
aS'hedge'
p2081
aS'satisfaction'
p2082
aS'discrepancy'
p2083
aS'property sector'
p2084
aS'shortcoming'
p2085
aVfed official
p2086
aS'aest'
p2087
aS'tax system'
p2088
aS'resort'
p2089
aVrating agency
p2090
aS'abuse'
p2091
aS'button'
p2092
aS'catholic'
p2093
aS'plaintiff'
p2094
aS'swift'
p2095
aS'vix'
p2096
aS'angola'
p2097
aS'sich fur'
p2098
aS'recent'
p2099
aS'matte'
p2100
aS'rebellion'
p2101
aVlife insurer
p2102
aS'printing'
p2103
aS'ebitda'
p2104
aS'remainder'
p2105
aS'clause'
p2106
aS'santander'
p2107
aS'implementierung'
p2108
aVtreasury price
p2109
aS'contender'
p2110
aS'mediterranean'
p2111
aVstock index
p2112
aS'pinnacle foods'
p2113
aS'hardship'
p2114
aS'interface'
p2115
aS'eine erste lesimplementierung'
p2116
aS'divestment'
p2117
aS'medium term'
p2118
aS'tier'
p2119
aS'thrust'
p2120
aS'visa'
p2121
aS'explosive'
p2122
aS'ramp'
p2123
aS'toilet'
p2124
aS'frustration'
p2125
aS'tech giant'
p2126
aS'break'
p2127
aS'bread'
p2128
aS'carlos'
p2129
aS'spencer'
p2130
aS'toronto stock exchange'
p2131
aS'montreal'
p2132
aS'labor force'
p2133
aS'municipality'
p2134
aS'crossover'
p2135
aS'singaporebased'
p2136
aS'advani'
p2137
aS'daiichi'
p2138
aS'teur'
p2139
aS'walter'
p2140
aS'gst'
p2141
aS'gsk'
p2142
aS'taiwan'
p2143
aS'narendra modi government'
p2144
aS'kansas'
p2145
aS'drag'
p2146
aS'cartel'
p2147
aS'notebooks'
p2148
aS'mar'
p2149
aS'florida'
p2150
aS'evans'
p2151
aS'erwartungen'
p2152
aS'purchasing'
p2153
aS'tactic'
p2154
aS'wkn'
p2155
aS'coordination'
p2156
aS'contest'
p2157
aS'intimidation'
p2158
aS'wenn'
p2159
aS'spoiler'
p2160
aS'vegetable'
p2161
aS'hassan'
p2162
aS'interestrate'
p2163
aS'cluster'
p2164
aS'creditor'
p2165
aS'mom'
p2166
aS'celebrity'
p2167
aS'traders work'
p2168
aS'divorce'
p2169
aS'mountain'
p2170
aS'annual'
p2171
aS'year end'
p2172
aS'favourite'
p2173
aS'brigade'
p2174
aS'dad'
p2175
aS'dam'
p2176
aS'dar'
p2177
aS'das'
p2178
aS'ipad'
p2179
aS'selection'
p2180
aS'liu'
p2181
aS'neben'
p2182
aS'gross'
p2183
aS'lake'
p2184
aS'royalty'
p2185
aS'stephenson'
p2186
aS'shooting'
p2187
aS'neue'
p2188
aS'venue'
p2189
aS'statoil'
p2190
aS'heathrow'
p2191
aS'musk'
p2192
aS'bund'
p2193
aS'diane'
p2194
aS'disadvantage'
p2195
aS'consumer sentiment'
p2196
aS'upheaval'
p2197
aS'cadbury'
p2198
aS'zuckerberg'
p2199
aS'prosperity'
p2200
aS'arrival'
p2201
aS'continuation'
p2202
aS'plosser'
p2203
aS'stall'
p2204
aS'art'
p2205
aVmining company
p2206
aVeuropean parliament election
p2207
aS'tag'
p2208
aS'tan'
p2209
aVcriterion
p2210
aS'nomination'
p2211
aS'earnings forecast'
p2212
aVpaisa
p2213
aS'marktsituation'
p2214
aS'bunch'
p2215
aS'ski'
p2216
aS'throne'
p2217
aS'sich'
p2218
aS'controversy'
p2219
aVmarket expectation
p2220
aS'shinawatra'
p2221
aS'master'
p2222
aS'greenback'
p2223
aS'iata'
p2224
aS'patch'
p2225
aS'julie'
p2226
aS'memorial'
p2227
aS'corporate'
p2228
aS'impairment'
p2229
aS'crowd'
p2230
aS'crown'
p2231
aS'abdullah'
p2232
aS'wang'
p2233
aS'litre'
p2234
aS'instability'
p2235
aS'tax bill'
p2236
aS'millionaire'
p2237
aS'workplace'
p2238
aS'homeland'
p2239
aS'brazilian'
p2240
aS'monopoly'
p2241
aS'labor market'
p2242
aS'cream'
p2243
aS'leif'
p2244
aS'wieder'
p2245
aS'hugh'
p2246
aS'telephone interview'
p2247
aS'president obama'
p2248
aS'gadget'
p2249
aS'underpinning'
p2250
aS'emirates'
p2251
aS'sabha'
p2252
aS'binding'
p2253
aVcore business
p2254
aS'affairs'
p2255
aS'indonesian'
p2256
aS'multimedia'
p2257
aS'mussen'
p2258
aS'pfe'
p2259
aS'comedy'
p2260
aS'houston'
p2261
aS'derivative'
p2262
aS'inflation data'
p2263
aS'newsroom'
p2264
aS'power steering'
p2265
aS'death toll'
p2266
aS'recognition'
p2267
aS'langer'
p2268
aS'zero hedge'
p2269
aS'excitement'
p2270
aS'medienarchiv'
p2271
aS'masayoshi'
p2272
aS'finance minister'
p2273
aVrate cut
p2274
aS'kitchen'
p2275
aS'gna'
p2276
aS'southeast asia'
p2277
aS'concept'
p2278
aS'underwriter'
p2279
aS'teacher'
p2280
aS'franklin'
p2281
aS'fbi'
p2282
aS'fbm'
p2283
aS'romania'
p2284
aS'documentation'
p2285
aVfund rate
p2286
aS'francis'
p2287
aVworld power
p2288
aS'president bashar alassad'
p2289
aS'queensland'
p2290
aS'unrest'
p2291
aS'leichte'
p2292
aS'americas'
p2293
aS'subsidised'
p2294
aS'queue'
p2295
aS'influx'
p2296
aS'quota'
p2297
aS'russian gas'
p2298
aS'special'
p2299
aS'calif'
p2300
aS'einem krankenhaus wurden reibungslos verwirklicht'
p2301
aS'cimb'
p2302
aS'ken'
p2303
aS'key'
p2304
aS'http'
p2305
aS'gail'
p2306
aS'samsung'
p2307
aS'swap'
p2308
aVcapital good
p2309
aS'stress test'
p2310
aS'berlin'
p2311
aS'exchangetraded fund'
p2312
aS'loyalty'
p2313
aS'personal'
p2314
aS'innovativen itberatungshausern im deutschsprachigen raum besitzt'
p2315
aS'anil'
p2316
aS'downside'
p2317
aS'upfront'
p2318
aS'national union'
p2319
aS'down'
p2320
aS'annuity'
p2321
aS'aufstellung'
p2322
aS'national australia bank'
p2323
aS'entwicklung von softwarelosungen'
p2324
aS'boy'
p2325
aS'boj'
p2326
aS'bob'
p2327
aS'boe'
p2328
aVorder book
p2329
aS'kevin'
p2330
aS'foreigner'
p2331
aS'paytv'
p2332
aS'protein'
p2333
aS'casualty'
p2334
aS'collision'
p2335
aS'mystery'
p2336
aS'micro'
p2337
aS'backer'
p2338
aS'khalifa'
p2339
aS'thinktank'
p2340
aS'premise'
p2341
aS'portugal'
p2342
aS'preference'
p2343
aS'easter'
p2344
aS'underweight'
p2345
aS'fortescue'
p2346
aS'sweden'
p2347
aS'occasion'
p2348
aS'fukushima'
p2349
aS'demographic'
p2350
aS'id nl'
p2351
aS'wine'
p2352
aS'procedure'
p2353
aVjob loss
p2354
aS'flotation'
p2355
aS'detroit'
p2356
aS'st petersburg'
p2357
aS'associate'
p2358
aS'photograph'
p2359
aS'spokesperson'
p2360
aS'ppi'
p2361
aS'vietnam'
p2362
aS'ron'
p2363
aS'rob'
p2364
aS'rod'
p2365
aS'roe'
p2366
aS'roy'
p2367
aS'rot'
p2368
aS'roadshow'
p2369
aS'sky news'
p2370
aS'plug'
p2371
aS'bse sensex'
p2372
aS'consultancy'
p2373
aS'manila'
p2374
aS'patrick'
p2375
aS'nymex'
p2376
aS'egyptian'
p2377
aS'fear index'
p2378
aS'bernadette'
p2379
aS'gps'
p2380
aS'motivation'
p2381
aS'steht'
p2382
aS'founding'
p2383
aS'fatality'
p2384
aS'inhaltlichen'
p2385
aS'distress'
p2386
aS'restraint'
p2387
aS'finden'
p2388
aS'advocate'
p2389
aS'gujarat'
p2390
aS'long'
p2391
aS'coordinator'
p2392
aS'remedy'
p2393
aS'target price'
p2394
aS'moody'
p2395
aS'inhaltliche'
p2396
aS'marketfy'
p2397
aS'litigation'
p2398
aS'exuberance'
p2399
aS'gute'
p2400
aS'ongc'
p2401
aS'thinkpad'
p2402
aS'gaming'
p2403
aS'siberia'
p2404
aS'power supply'
p2405
aS'swathe'
p2406
aS'minority stake'
p2407
aS'favoured'
p2408
aS'engagement'
p2409
aVbond yield
p2410
aS'capex'
p2411
aS'chrome'
p2412
aS'extraction'
p2413
aS'other stocks'
p2414
aS'investec'
p2415
aVhome sale
p2416
aS'servicing'
p2417
aS'current'
p2418
aS'applicant'
p2419
aS'blieb'
p2420
aS'state government'
p2421
aS'atlantic'
p2422
aS'espn'
p2423
aS'surgery'
p2424
aS'policy review'
p2425
aS'rights'
p2426
aS'facebook inc'
p2427
aS'drift'
p2428
aS'sight'
p2429
aS'santa'
p2430
aS'santo'
p2431
aS'european bank'
p2432
aVinfrastructure project
p2433
aS'tally'
p2434
aS'supervisor'
p2435
aS'beteiligungen'
p2436
aS'factory activity'
p2437
aS'expiration'
p2438
aS'footage'
p2439
aS'ballot'
p2440
aS'function'
p2441
aS'consolidated'
p2442
aS'bernanke'
p2443
aS'indiana'
p2444
aS'qualitatsorientiertes unternehmen mit umfassendem leistungsspektrum'
p2445
aS'mayor'
p2446
aS'rome'
p2447
aS'patent'
p2448
aS'norwegian'
p2449
aS'insurgent'
p2450
aS'lineup'
p2451
aVwage increase
p2452
aS'explosion'
p2453
aS'mobil'
p2454
aVoffence
p2455
aVcurrency market
p2456
aS'landslide'
p2457
aS'theater'
p2458
aS'real'
p2459
aS'recorder'
p2460
aS'business plan'
p2461
aS'commuter'
p2462
aS'inline'
p2463
aS'asu'
p2464
aS'asx'
p2465
aS'ash'
p2466
aS'probability'
p2467
aS'cigarette'
p2468
aS'trade balance'
p2469
aS'louis'
p2470
aS'missile'
p2471
aS'publicity'
p2472
aS'jail'
p2473
aS'shi'
p2474
aS'walters'
p2475
aS'bnp paribas'
p2476
aS'londonlisted'
p2477
aS't inc'
p2478
aS'microsoft corp'
p2479
aS'iron ore'
p2480
aS'supporters'
p2481
aS'luck'
p2482
aS'ism'
p2483
aS'isc'
p2484
aS'isa'
p2485
aVgrowth opportunity
p2486
aS'cent increase'
p2487
aS'glencore'
p2488
aS'zum'
p2489
aS'congestion'
p2490
aS'comptroller'
p2491
aS'ergebni'
p2492
aS'designer'
p2493
aS'killer'
p2494
aS'davies'
p2495
aS'characteristic'
p2496
aS'disappointment'
p2497
aS'forecasting'
p2498
aS'arts'
p2499
aS'audience'
p2500
aS'bmo'
p2501
aS'bmw'
p2502
aS'daniel'
p2503
aS'bottleneck'
p2504
aS'edt'
p2505
aS'onshore'
p2506
aS'blood'
p2507
aS'idee'
p2508
aS'cohead'
p2509
aS'interactive'
p2510
aS'touchscreen'
p2511
aS'fitch ratings'
p2512
aS'guilt'
p2513
aViron ore price
p2514
aS'piketty'
p2515
aS'pet'
p2516
aS'pen'
p2517
aS'investor sentiment'
p2518
aS'fracking'
p2519
aS'crop'
p2520
aS'bachelor'
p2521
aS'mindset'
p2522
aS'bondbuying program'
p2523
aS'meter'
p2524
aS'reuters group'
p2525
aS'bernard'
p2526
aS'instant'
p2527
aS'tone'
p2528
aS'financial conduct authority'
p2529
aS'works'
p2530
aS'gbsx'
p2531
aS'universitatskrankenhau'
p2532
aS'auction'
p2533
aS'god'
p2534
aS'goa'
p2535
aS'gov'
p2536
aVelection result
p2537
aS'german dax'
p2538
aS'amortization'
p2539
aS'gift'
p2540
aS'census'
p2541
aS'electorate'
p2542
aS'kpmg'
p2543
aVeuropean stock
p2544
aS'dining'
p2545
aS'commerzbank'
p2546
aS'darin'
p2547
aS'forecaster'
p2548
aS'abdul'
p2549
aS'hughes'
p2550
aVhome market
p2551
aS'argentina'
p2552
aVmedium company
p2553
aS'exit poll'
p2554
aS'anybody'
p2555
aS'exhibition'
p2556
aS'monthonmonth'
p2557
aS'boko'
p2558
aS'disposal'
p2559
aS'orange'
p2560
aS'climate change'
p2561
aS'embarrassment'
p2562
aS'inversion'
p2563
aS'loser'
p2564
aS'rate hike'
p2565
aS'dow jones industrial average'
p2566
aS'silicon'
p2567
aS'basketball'
p2568
aS'wells'
p2569
aS'camp'
p2570
aS'hero'
p2571
aS'glasgow'
p2572
aS'birmingham'
p2573
aS'bnp'
p2574
aS'sebastian'
p2575
aS'aviv'
p2576
aS'treasury department'
p2577
aS'dday'
p2578
aS'assistant'
p2579
aS'ergebnissen'
p2580
aVequity market
p2581
aS'bekannten'
p2582
aS'affordability'
p2583
aS'freight'
p2584
aS'kelly'
p2585
aS'redistribution'
p2586
aS'ivan'
p2587
aS'clinton'
p2588
aS'slump'
p2589
aS'harvest'
p2590
aVsecurity concern
p2591
aS'transmission'
p2592
aS'tsla'
p2593
aS'licence'
p2594
aS'holmes'
p2595
aS'ebay inc'
p2596
aS'french government'
p2597
aS'ende'
p2598
aS'breakout'
p2599
aS'complacency'
p2600
aS'den branchen konsumguter'
p2601
aS'bombing'
p2602
aS'tinto'
p2603
aS'redundancy'
p2604
aS'prime minister david cameron'
p2605
aS'australian dollar'
p2606
aS'official data'
p2607
aVfinance ministry
p2608
aS'volkswagen'
p2609
aS'credit suisse'
p2610
aS'helm'
p2611
aS'hell'
p2612
aS'earnings growth'
p2613
aS'arbitration'
p2614
aS'procurement'
p2615
aS'ihs global insight'
p2616
aS'forbes'
p2617
aS'petrochemical'
p2618
aVasset purchase
p2619
aS'wellbeing'
p2620
aS'corruption scandal'
p2621
aS'marketer'
p2622
aS'wie'
p2623
aS'wii'
p2624
aS'stephanie link'
p2625
aS'finalised'
p2626
aS'jaitley'
p2627
aS'well'
p2628
aVprice increase
p2629
aS'petaling jaya'
p2630
aVbanking regulator
p2631
aS'therapy'
p2632
aS'liga'
p2633
aS'distance'
p2634
aS'zieminski'
p2635
aS'referendum'
p2636
aS'instrument'
p2637
aS'bharti'
p2638
aS'election victory'
p2639
aS'kenneth'
p2640
aS'map'
p2641
aS'mas'
p2642
aS'mau'
p2643
aS'max'
p2644
aS'mac'
p2645
aS'mae'
p2646
aS'mal'
p2647
aS'londonbased'
p2648
aS'arrears'
p2649
aS'ongoing'
p2650
aS'jeffrey'
p2651
aS'medicine'
p2652
aS'bribe'
p2653
aS'radar'
p2654
aS'print'
p2655
aS'militant'
p2656
aS'assumption'
p2657
aS'knapp'
p2658
aS'dan'
p2659
aS'nominee'
p2660
aS'chatter'
p2661
aS'wir'
p2662
aS'automotive'
p2663
aS'nur'
p2664
aS'fluctuation'
p2665
aS'bulk'
p2666
aVnews report
p2667
aS'mentor'
p2668
aS'business community'
p2669
aS'saga'
p2670
aS'cramer'
p2671
aS'experts'
p2672
aS'insider trading'
p2673
aS'service provider'
p2674
aS'russell'
p2675
aS'oath'
p2676
aS'oati'
p2677
aS'rent'
p2678
aS'ixic'
p2679
aS'mount'
p2680
aS'actress'
p2681
aS'barcelona'
p2682
aS'ali'
p2683
aS'logistiklosungen'
p2684
aS'johannesburg'
p2685
aS'shade'
p2686
aS'scot'
p2687
aS'headcount'
p2688
aS'notch'
p2689
aS'outfit'
p2690
aS'tgt'
p2691
aS'nawaz'
p2692
aS'investment banker'
p2693
aS'sir'
p2694
aS'sie'
p2695
aS'sin'
p2696
aS'sim'
p2697
aS'frontier'
p2698
aS'frontrunner'
p2699
aS'rumoured'
p2700
aS'realised'
p2701
aS'universe'
p2702
aS'aud'
p2703
aS'aug'
p2704
aS'significance'
p2705
aS'backdrop'
p2706
aS'contracting'
p2707
aS'airbus'
p2708
aS'mckinsey'
p2709
aS'honor'
p2710
aS'input'
p2711
aS'anglo american platinum'
p2712
aS'stake sale'
p2713
aS'oregon'
p2714
aS'eurosceptic'
p2715
aS'arun'
p2716
aS'slot'
p2717
aS'goodluck'
p2718
aS'roger'
p2719
aS'favorite'
p2720
aVexport market
p2721
aS'attitude'
p2722
aS'freiwillig'
p2723
aS'wayne'
p2724
aS'river'
p2725
aS'publishing'
p2726
aS'british company'
p2727
aS'grower'
p2728
aS'johan'
p2729
aS'repair'
p2730
aS'maria'
p2731
aS'odd'
p2732
aS'charity'
p2733
aS'paralysis'
p2734
aS'saturn'
p2735
aS'policy meeting'
p2736
aS'bedroom'
p2737
aVneighbour
p2738
aVgovernment official
p2739
aS'regulatory'
p2740
aS'xinhua'
p2741
aS'saver'
p2742
aS'oslo'
p2743
aS'gla'
p2744
aS'consumer confidence'
p2745
aS'observer'
p2746
aS'catering'
p2747
aS'stint'
p2748
aS'usbased'
p2749
aS'xbox'
p2750
aS'prime minister narendra modi'
p2751
aS'baht'
p2752
aS'dean'
p2753
aS'crystal'
p2754
aS'microwave'
p2755
aS'brown'
p2756
aS'vegas'
p2757
aS'confrontation'
p2758
aS'uslisted'
p2759
aS'michel'
p2760
aS'united kingdom'
p2761
aS'washingtonbased'
p2762
aS'tehran'
p2763
aS'sierra'
p2764
aS'reportstocks'
p2765
aS'retention'
p2766
aS'poroshenko'
p2767
aS'iraqi'
p2768
aS'authorization'
p2769
aS'haben'
p2770
aS'european commission'
p2771
aS'terrorism'
p2772
aS'lid'
p2773
aS'lim'
p2774
aS'circle'
p2775
aS'desk'
p2776
aS'youtube'
p2777
aS'memorandum'
p2778
aS'nicholas'
p2779
aS'kolkata'
p2780
aVservice company
p2781
aS'emphasised'
p2782
aS'globe'
p2783
aS'final'
p2784
aS'statt'
p2785
aS'cent stake'
p2786
aS'chennai'
p2787
aS'convenience'
p2788
aS'acquisition activity'
p2789
aS'operations'
p2790
aS'doug'
p2791
aS'mahindra'
p2792
aS'bay'
p2793
aS'bag'
p2794
aS'bad'
p2795
aS'bac'
p2796
aS'harvard'
p2797
aS'mohammad'
p2798
aS'apology'
p2799
aS'downtown'
p2800
aS'vienna'
p2801
aS'trace'
p2802
aS'licht'
p2803
aS'maximise'
p2804
aS'tour'
p2805
aS'facebook page'
p2806
aS'mortgage lending'
p2807
aS'bottle'
p2808
aS'suitor'
p2809
aS'stock split'
p2810
aS'flower'
p2811
aS'manufacturing sector'
p2812
aS'david gregorio'
p2813
aS'dealmaking'
p2814
aS'dhabi'
p2815
aS'pollution'
p2816
aS'desert'
p2817
aS'shock'
p2818
aS'nephew'
p2819
aS'tmobile'
p2820
aS'yearend'
p2821
aS'pearson'
p2822
aS'license'
p2823
aS'appearance'
p2824
aS'investor interest'
p2825
aS'valuka'
p2826
aS'rao'
p2827
aS'ram'
p2828
aS'rat'
p2829
aS'ray'
p2830
aVeuropean share
p2831
aVmoney manager
p2832
aS'brewer'
p2833
aS'iovine'
p2834
aS'trillion'
p2835
aS'amortisation'
p2836
aS'pakistan'
p2837
aS'followup'
p2838
aS'reminder'
p2839
aS'compound'
p2840
aS'blow'
p2841
aS'bloc'
p2842
aS'synergy'
p2843
aS'importer'
p2844
aS'guest'
p2845
aVpower station
p2846
aVbenchmark index
p2847
aS'windows'
p2848
aS'hip'
p2849
aS'hit'
p2850
aS'administrator'
p2851
aS'irregularity'
p2852
aS'sacrifice'
p2853
aS'chicken'
p2854
aS'retailing'
p2855
aS'premiere'
p2856
aS'english'
p2857
aS'empire'
p2858
aS'headphone'
p2859
aS'couldn'
p2860
aS'heating'
p2861
aS'welche'
p2862
aS'umfangreiche'
p2863
aS'online'
p2864
aS'variable'
p2865
aS'drilling'
p2866
aS'receipt'
p2867
aS'sponsor'
p2868
aS'neglect'
p2869
aS'illness'
p2870
aS'buffer'
p2871
aS'awards'
p2872
aS'new zealand'
p2873
aS'outfitter'
p2874
aS'household spending'
p2875
aS'definition'
p2876
aS'lane'
p2877
aS'beverage'
p2878
aS'raum'
p2879
aS'nexu'
p2880
aS'guideline'
p2881
aS'robot'
p2882
aS'portal'
p2883
aS'rigging'
p2884
aS'incompetence'
p2885
aS'length'
p2886
aS'worldwide'
p2887
aVcommodity price
p2888
aS'denial'
p2889
aS'banking industry'
p2890
aS'punjab'
p2891
aS'sarah'
p2892
aS'platinum belt'
p2893
aS'lewis'
p2894
aS'attacker'
p2895
aS'wheel'
p2896
aVignition switch
p2897
aS'kenyatta'
p2898
aS'amazoncom inc'
p2899
aS'market price'
p2900
aS'imposition'
p2901
aS'joke'
p2902
aS'inquiry'
p2903
aS'livestock'
p2904
aS'tax base'
p2905
aS'amd'
p2906
aS'amy'
p2907
aS'registry'
p2908
aS'conviction'
p2909
aS'bryan'
p2910
aS'tata'
p2911
aS'turnout'
p2912
aS'horse'
p2913
aS'state john kerry'
p2914
aS'sainsbury'
p2915
aS'visibility'
p2916
aS'edinburgh'
p2917
aS'fertiliser'
p2918
aS'cellphone'
p2919
aS'ashley'
p2920
aS'midmay'
p2921
aS'verantwortlichdie'
p2922
aS'fannie'
p2923
aS'caterpillar'
p2924
aS'palace'
p2925
aS'liberty'
p2926
aS'christopher'
p2927
aS'cousin'
p2928
aS'runup'
p2929
aS'capital investment'
p2930
aS'journey'
p2931
aS'dealing'
p2932
aS'liberation'
p2933
aS'cookie policy'
p2934
aS'market value'
p2935
aS'nazi'
p2936
aS'lloyds banking group'
p2937
aS'declaration'
p2938
aS'coupon'
p2939
aS'pct'
p2940
aS'tayyip'
p2941
aS'express'
p2942
aS'defendant'
p2943
aS'allied'
p2944
aS'ramping'
p2945
aS'factset'
p2946
aS'jeweller'
p2947
aS'anomaly'
p2948
aS'builder'
p2949
aS'gmo'
p2950
aS'seit'
p2951
aS'sein'
p2952
aVhome price
p2953
aS'spike'
p2954
aS'advocacy'
p2955
aS'dock'
p2956
aS'elizabeth'
p2957
aS'iowa'
p2958
aS'rental'
p2959
aS'berkshire hathaway'
p2960
aS'breite kundenstruktur'
p2961
aS'unter'
p2962
aS'passage'
p2963
aS'turf'
p2964
aS'railway'
p2965
aS'luxembourg'
p2966
aS'kundenbasis sowohl'
p2967
aS'taste'
p2968
aS'wifi'
p2969
aS'lisa'
p2970
aS'christian'
p2971
aS'utilisation'
p2972
aS'bout'
p2973
aS'konzerne'
p2974
aS'mastercard'
p2975
aS'weight'
p2976
aS'unserer'
p2977
aS'village'
p2978
aS'rbc capital markets'
p2979
aS'obstacle'
p2980
aS'refinancing operation'
p2981
aVofficial figure
p2982
aS'users'
p2983
aS'gang'
p2984
aS'confirmation'
p2985
aS'showcase'
p2986
aS'consumer inflation'
p2987
aS'clip'
p2988
aS'local'
p2989
aS'correspondent'
p2990
aS'handelt'
p2991
aS'gandhi'
p2992
aS'cake'
p2993
aS'prize'
p2994
aS'succession'
p2995
aS'military'
p2996
aS'organizer'
p2997
aS'necessity'
p2998
aS'drought'
p2999
aS'presidency'
p3000
aS'wahl'
p3001
aS'landscape'
p3002
aS'tyson foods'
p3003
aS'stockholder'
p3004
aS'ecb meeting'
p3005
aS'actor'
p3006
aS'protester'
p3007
aS'spicejet'
p3008
aS'ultrabook'
p3009
aS'attraction'
p3010
aS'homebuilder'
p3011
aS'container'
p3012
aS'refining'
p3013
aS'hockey'
p3014
aVgovernment policy
p3015
aS'harris'
p3016
aS'weekly'
p3017
aS'accessing'
p3018
aS'likeforlike'
p3019
aVcar sale
p3020
aS'mapping'
p3021
aS'bumper'
p3022
aS'grace'
p3023
aS'iranian'
p3024
aS'avoidance'
p3025
aVfamily member
p3026
aS'wearable'
p3027
aVsector bank
p3028
aS'anton'
p3029
aS'animal'
p3030
aS'botox'
p3031
aS'lloyd'
p3032
aS'migrant'
p3033
aS'dust'
p3034
aS'behemoth'
p3035
aS'gas supply'
p3036
aS'profit forecast'
p3037
aS'ordinary'
p3038
aS'crimea'
p3039
aS'sub'
p3040
aS'suv'
p3041
aS'accord'
p3042
aS'jaya'
p3043
aS'museum'
p3044
aS'unilever'
p3045
aS'vor allem'
p3046
aS'adventure'
p3047
aS'howard archer'
p3048
aS'geht'
p3049
aS'angel'
p3050
aS'anger'
p3051
aS'soccer'
p3052
aS'desktop'
p3053
aS'upa government'
p3054
aS'supreme court'
p3055
aS'circulation'
p3056
aS'shenzhen'
p3057
aS'oilfield'
p3058
aS'nino'
p3059
aS'clarke'
p3060
aS'basi'
p3061
aS'jordan'
p3062
aS'blend'
p3063
aS'woe'
p3064
aS'everybody'
p3065
aS'consultation'
p3066
aS'belgian'
p3067
aS'archer'
p3068
aS'seth'
p3069
aS'management team'
p3070
aS'paycheck'
p3071
aS'credit growth'
p3072
aS'sharif'
p3073
aS'amzn'
p3074
aS'belieferungspositionen'
p3075
aS'dynamic'
p3076
aVbond purchase
p3077
aS'neu'
p3078
aS'murray'
p3079
aS'jacob'
p3080
aS'revenge'
p3081
aS'oft'
p3082
aS'discontent'
p3083
aS'expansion plan'
p3084
aS'mcd'
p3085
aS'exception'
p3086
aS'metropolitan'
p3087
aS'cantor'
p3088
aS'nerve'
p3089
aS'bernama'
p3090
aS'auto industry'
p3091
aS'ranking'
p3092
aS'gamble'
p3093
aS'housing bubble'
p3094
aS'compromise'
p3095
aS'hdd'
p3096
aS'operating'
p3097
aS'armed'
p3098
aS'del'
p3099
aS'dem'
p3100
aS'dec'
p3101
aS'connectivity'
p3102
aS'shutdown'
p3103
aS'justification'
p3104
aS'signature'
p3105
aS'staple'
p3106
aVbond price
p3107
aS'retail'
p3108
aS'international monetary fund'
p3109
aS'prozent'
p3110
aS'deloitte'
p3111
aS'studio'
p3112
aS'thesis'
p3113
aS'interference'
p3114
aS'quebec'
p3115
aS'censorship'
p3116
aVshopping mall
p3117
aS'airtel'
p3118
aS'origin'
p3119
aS'briton'
p3120
aS'ann'
p3121
aS'anz'
p3122
aS'banking system'
p3123
aS'joy'
p3124
aS'jon'
p3125
aS'shaft'
p3126
aS'general electric'
p3127
aS'legal'
p3128
aS'midcap'
p3129
aS'tel'
p3130
aS'ten'
p3131
aS'tea'
p3132
aS'ted'
p3133
aS'airplane'
p3134
aS'thaksin'
p3135
aS'inequality'
p3136
aS'warren buffett'
p3137
aS'benjamin'
p3138
aS'instruction'
p3139
aS'renzi'
p3140
aS'loading'
p3141
aS'arthur'
p3142
aS'graphic'
p3143
aS'fastfood'
p3144
aS'beseitigt'
p3145
aS'calculation'
p3146
aS'realtor'
p3147
aS'power sector'
p3148
aS'cross'
p3149
aS'industriestrasse'
p3150
aS'ballmer'
p3151
aS'miller'
p3152
aS'meisten'
p3153
aS'creek'
p3154
aS'spate'
p3155
aS'privateequity'
p3156
aS'schwierigen'
p3157
aS'virtue'
p3158
aS'methodology'
p3159
aVmay sale
p3160
aS'amnesty'
p3161
aS'outrage'
p3162
aS'sicherheitslucken'
p3163
aS'rumour'
p3164
aS'adam'
p3165
aS'ecb president mario draghi'
p3166
aS'nick zieminski'
p3167
aS'measurement'
p3168
aS'anonymity'
p3169
aS'legislature'
p3170
aS'official xinhua news agency'
p3171
aS'buyout'
p3172
aS'leahy'
p3173
aS'businesstoday'
p3174
aS'reversal'
p3175
aS'courtesy'
p3176
aS'gbp'
p3177
aS'erste'
p3178
aS'runway'
p3179
aS'government data'
p3180
aS'antieu'
p3181
aS'der branche fenster'
p3182
aS'band'
p3183
aS'bang'
p3184
aS'boeing co'
p3185
aS'farming'
p3186
aS'parent company'
p3187
aVmarket analyst
p3188
aS'income inequality'
p3189
aS'excuse'
p3190
aVenergy market
p3191
aS'exemption'
p3192
aS'topic'
p3193
aS'dominance'
p3194
aS'domain'
p3195
aS'obligation'
p3196
aS'paschal'
p3197
aS'liberal'
p3198
aS'tournament'
p3199
aS'saidthe'
p3200
aS'book value'
p3201
aS'staffer'
p3202
aS'inclusion'
p3203
aS'log'
p3204
aS'lok'
p3205
aS'khan'
p3206
aS'banks'
p3207
aS'dream'
p3208
aS'r d'
p3209
aS'unternehmensentwicklung'
p3210
aS'northern'
p3211
aS'lacklustre'
p3212
aS'south east'
p3213
aS'benzingacom'
p3214
aS'umfassen'
p3215
aS'renewal'
p3216
aS'noise'
p3217
aS'colonel'
p3218
aS'saudi arabia'
p3219
aS'zambia'
p3220
aS'weitere meilensteine der unternehmensentwicklung'
p3221
aS'laurent'
p3222
aS'dose'
p3223
aS'beispiel'
p3224
aS'dre'
p3225
aS'setup'
p3226
aS'hollywood'
p3227
aS'ukbased'
p3228
aS'und'
p3229
aS'height'
p3230
aS'citigroup inc'
p3231
aS'attracting'
p3232
aS'america corp'
p3233
aS'gathering'
p3234
aS'icahn'
p3235
aS'smart sc'
p3236
aS'dick'
p3237
aS'nestle'
p3238
aS'auftrage'
p3239
aS'accusation'
p3240
aVright issue
p3241
aS'raft'
p3242
aS'oxford'
p3243
aS'fish'
p3244
aS'standoff'
p3245
aS'merchandise'
p3246
aVmarket condition
p3247
aS'paribas'
p3248
aS'standpoint'
p3249
aS'interaction'
p3250
aS'smartcard'
p3251
aS'roche'
p3252
aS'cabin'
p3253
aS'homebuyer'
p3254
aS'volunteer'
p3255
aS'dissent'
p3256
aS'soviet'
p3257
aS'capitalisation'
p3258
aS'ventures'
p3259
aS'heavyweight'
p3260
aS'central bank'
p3261
aS'south sudan'
p3262
aS'jetliner'
p3263
aS'murder'
p3264
aVgas field
p3265
aS'tanzania'
p3266
aS'gamer'
p3267
aS'linkreuterscom'
p3268
aS'tyson'
p3269
aS'chapter'
p3270
aS'thestreet ratings'
p3271
aS'federation'
p3272
aS'zusatzlich'
p3273
aS'isc bt ag'
p3274
aS'ian'
p3275
aS'seri'
p3276
aS'investment bank'
p3277
aVbusiness leader
p3278
aS'helicopter'
p3279
aS'footprint'
p3280
aS'morning trade'
p3281
aS'spot gold'
p3282
aS'regard'
p3283
aS'apparel'
p3284
aS'thestreet quant ratings'
p3285
aS'drone'
p3286
aS'context'
p3287
aS'tweak'
p3288
aS'privatisation'
p3289
aS'hillshire'
p3290
aS'rahul'
p3291
aVveroffentlichten ergebnissen handelt e sich
p3292
aS'liverpool'
p3293
aS'automation'
p3294
aS'lobby'
p3295
aS'console'
p3296
aVwage growth
p3297
aS'accra'
p3298
aS'nda'
p3299
aS'glass'
p3300
aS'chief executive'
p3301
aS'credential'
p3302
aS'debut'
p3303
aS'managing director'
p3304
aS'boston'
p3305
aS'branding'
p3306
aS'weiter'
p3307
aS'billing'
p3308
aS'prison'
p3309
aS'integral'
p3310
aS'williams'
p3311
aS'sophie'
p3312
aS'mynew'
p3313
aS'landlord'
p3314
aS'plantation'
p3315
aS'neighbor'
p3316
aS'italia'
p3317
aS'graduate'
p3318
aS'ageing'
p3319
aS'mall'
p3320
aS'mali'
p3321
aS'major'
p3322
aS'ukip'
p3323
aS'brewing'
p3324
aS'netflix'
p3325
aS'edwards'
p3326
aS'establishment'
p3327
aVasiapacific share
p3328
aS'erhalten'
p3329
aS'wird'
p3330
aS'wire'
p3331
aS'kirti pandey'
p3332
aS'raymond'
p3333
aS'haul'
p3334
aS'industry expert'
p3335
aS'pascal'
p3336
aS'diesel'
p3337
aS'diesem'
p3338
aS'dieser'
p3339
aS'die daraus resultierenden auslastungslucken fuhrten'
p3340
aS'trophy'
p3341
aS'upper'
p3342
aS'clue'
p3343
aS'opening bell'
p3344
aS'beef'
p3345
aS'reservoir'
p3346
aS'quantum'
p3347
aS'concentration'
p3348
aS'chipmaker'
p3349
aS'profittaking'
p3350
aS'oil rig'
p3351
aS'currency strategist'
p3352
aS'toyota'
p3353
aS'pentagon'
p3354
aVislamist militant
p3355
aS'proposition'
p3356
aS'gender'
p3357
aS'geschaftsentwicklung'
p3358
aS'baird'
p3359
aS'cruise'
p3360
aS'einfach'
p3361
aS'learnt'
p3362
aS'fallout'
p3363
aS'mining sector'
p3364
aS'horror'
p3365
aS'percentage point'
p3366
aS'kickstart'
p3367
aS'dutch'
p3368
aS'fifa'
p3369
aS'exxonmobil'
p3370
aS'urgency'
p3371
aS'supply chain'
p3372
aS'target corp'
p3373
aS'quant'
p3374
aS'fattah'
p3375
aS'mill'
p3376
aS'milk'
p3377
aS'afghanistan'
p3378
aS'guardian'
p3379
aS'earthquake'
p3380
aS'accessory'
p3381
aS'mercantile'
p3382
aS'glut'
p3383
aS'intercontinental'
p3384
aVpolicy maker
p3385
aS'par'
p3386
aS'pat'
p3387
aS'pan'
p3388
aS'mcdonald'
p3389
aS'underwriting'
p3390
aS'fulfil'
p3391
aS'aussie'
p3392
aS'scotia'
p3393
aS'news coverage'
p3394
aS'agee'
p3395
aS'organise'
p3396
aS'breakup'
p3397
aS'policy decision'
p3398
aS'austrian'
p3399
aS'warner'
p3400
aS'demonstration'
p3401
aS'dallas'
p3402
aS'judgment'
p3403
aS'personnel'
p3404
aS'unterschritten'
p3405
aS'proximity'
p3406
aS'clinic'
p3407
aS'coalition government'
p3408
aS'handset'
p3409
aS'blog post'
p3410
aS'monsoon'
p3411
aS'frei'
p3412
aS'arizona'
p3413
aS'free'
p3414
aS'fred'
p3415
aS'kleine'
p3416
aS'earth'
p3417
aS'sullivan'
p3418
aS'solar'
p3419
aS'broadcom corp'
p3420
aS'endorsement'
p3421
aS'branchen'
p3422
aS'einer exklusiven roadshow zum thema supply chain management mit einem unserer partnerhinweis'
p3423
aS'distributor'
p3424
aS'motion'
p3425
aS'erste anbindung eines sowie erste auftrage mit der renommierten salesforceplattform'
p3426
aS'job market'
p3427
aS'north sea'
p3428
aS'hack'
p3429
aS'lng'
p3430
aS'comp'
p3431
aS'bowl'
p3432
aS'modelle'
p3433
aS'oil producer'
p3434
aS'android'
p3435
aS'symbol'
p3436
aS'business investment'
p3437
aS'lawrence'
p3438
aS'protective'
p3439
aS'dann'
p3440
aS'softbank'
p3441
aS'anne'
p3442
aS'anna'
p3443
aS'cfo'
p3444
aS'ammunition'
p3445
aS'capital spending'
p3446
aS'japanische'
p3447
aS'verizon'
p3448
aS'sprint corp'
p3449
aS'issuance'
p3450
aS'rocket'
p3451
aS'siemens'
p3452
aS'ishare'
p3453
aS'windfall'
p3454
aS'insecurity'
p3455
aS'west africa'
p3456
aS'plate'
p3457
aS'libyan'
p3458
aS'academic'
p3459
aVstock price
p3460
aS'jewelry'
p3461
aS'honour'
p3462
aS'agricultural'
p3463
aS'mittelstandler'
p3464
aS'proactive'
p3465
aS'single'
p3466
aS'francois'
p3467
aS'rage'
p3468
aS'schweizerische'
p3469
aS'skepticism'
p3470
aS'mehr'
p3471
aS'variant'
p3472
aVpolicy action
p3473
aS'personellen'
p3474
aS'gateway'
p3475
aS'mouth'
p3476
aS'specific'
p3477
aS'witness'
p3478
aS'sensitivity'
p3479
aS'uttar pradesh'
p3480
aVsecurity force
p3481
aS'stuff'
p3482
aS'frame'
p3483
aS'allergan'
p3484
aS'rbs'
p3485
aS'rbc'
p3486
aS'diabetes'
p3487
aS'credibility'
p3488
aS'petro'
p3489
aS'mpc'
p3490
aS'ladder'
p3491
aS'news provider'
p3492
aS'separatist'
p3493
aS'acceleration'
p3494
aS'isin'
p3495
aS'gun'
p3496
aS'gut'
p3497
aS'ibm'
p3498
aS'pittsburgh'
p3499
aS'overseas'
p3500
aS'wmt'
p3501
aS'attendee'
p3502
aS'antonio'
p3503
aS'muscle'
p3504
aS'pranab'
p3505
aS'working'
p3506
aS'ronald'
p3507
aVgunman
p3508
aS'trading volume'
p3509
aS'ngo'
p3510
aS'retrospective'
p3511
aVafrican country
p3512
aS'marketplace'
p3513
aS'mobility'
p3514
aS'fed chair janet yellen'
p3515
aS'lionel'
p3516
aS'tranche'
p3517
aS'initial'
p3518
aS'landing'
p3519
aS'lynch'
p3520
aS'sample'
p3521
aS'fuhrten'
p3522
aS'sao paulo'
p3523
aS'rupert'
p3524
aS'manmohan'
p3525
aS'zero'
p3526
aS'brady'
p3527
aS'tiffany'
p3528
aS'evaluation'
p3529
aS'emittent'
p3530
aVmass protest
p3531
aS'ebenso'
p3532
aS'cure'
p3533
aS'curb'
p3534
aS'fitch'
p3535
aS'nflx'
p3536
aS'west coast'
p3537
aS'vergangenen'
p3538
aS'intermediate'
p3539
aS'pakistani'
p3540
aS'impala'
p3541
aS'uberfuhrt'
p3542
aS'prisoner'
p3543
aS'national statistics'
p3544
aVprivacy policy
p3545
aS'luhansk'
p3546
aS'taiwanese'
p3547
aS'beeinflusst'
p3548
aS'mining industry'
p3549
aS'jim cramer'
p3550
aS'finalise'
p3551
aS'transit'
p3552
aVanalyst estimate
p3553
aS'bitcoin'
p3554
aS'welche aktive beteiligungen'
p3555
aS'bridge'
p3556
aS'seminar'
p3557
aS'full'
p3558
aS'finger'
p3559
aS'beneficiary'
p3560
aS'lending rate'
p3561
aS'duke'
p3562
aS'government spending'
p3563
aS'annum'
p3564
aS'turkey'
p3565
aS'sun'
p3566
aS'hill'
p3567
aS'storm'
p3568
aS'comcast corp'
p3569
aS'disclaimer'
p3570
aS'egypt'
p3571
aS'ambition'
p3572
aS'joe'
p3573
aS'donetsk'
p3574
aS'usage'
p3575
aS'township'
p3576
aS'chizu nomiyama'
p3577
aS'shopper'
p3578
aS'aapl'
p3579
aS'thema'
p3580
aS'leasing'
p3581
aVgold price
p3582
aS'phillips'
p3583
aS'birth'
p3584
aS'bereit'
p3585
aS'peso'
p3586
aS'governing'
p3587
aS'fibre'
p3588
aS'caroline'
p3589
aS'carolina'
p3590
aS'expression'
p3591
aS'chad'
p3592
aS'breath'
p3593
aS'reduzierte'
p3594
aS'colony'
p3595
aS'hinzufugen'
p3596
aS'labour market'
p3597
aS'ebenfall'
p3598
aS'refusal'
p3599
aS'migration'
p3600
aS'jewish'
p3601
aS'walker'
p3602
aS'seng'
p3603
aS'reuters report'
p3604
aS'sowie der gemeinsame marketingauftritt'
p3605
aS'spill'
p3606
aS'subcommittee'
p3607
aS'prudential'
p3608
aS'ball'
p3609
aS'columbia'
p3610
aS'colour'
p3611
aS'celebration'
p3612
aS'jinping'
p3613
aS'palestinian'
p3614
aS'net profit'
p3615
aS'notion'
p3616
aS'united arab emirates'
p3617
aS'unternehmen der eqs group ag'
p3618
aS'foreclosure'
p3619
aS'cold'
p3620
aS'hall'
p3621
aS'asia pacific'
p3622
aS'lme'
p3623
aS'bulgaria'
p3624
aS'tradition'
p3625
aS'reference'
p3626
aS'duration'
p3627
aS'hepatitis'
p3628
aS'splitting'
p3629
aS'mickelson'
p3630
aS'multinational'
p3631
aS'markit'
p3632
aS'staples'
p3633
aS'virgin'
p3634
aS'jamie'
p3635
aS'shah'
p3636
aS'heritage'
p3637
aS'safehaven'
p3638
aS'tieup'
p3639
aS'chunk'
p3640
aS'bei'
p3641
aS'ben'
p3642
aS'bed'
p3643
aS'gesture'
p3644
aS'mohammed'
p3645
aS'world cup'
p3646
aS'accountant'
p3647
aS'suzuki'
p3648
aS'upa'
p3649
aS'pandey'
p3650
aS'mccarthy'
p3651
aS'stewart'
p3652
aS'anchor'
p3653
aS'stock exchange'
p3654
aS'comcast'
p3655
aS'diet'
p3656
aS'olympic'
p3657
aS'exploitation'
p3658
aS'language'
p3659
aS'tiananmen'
p3660
aS'nach'
p3661
aVgold future
p3662
aS'onset'
p3663
aS'permission'
p3664
aS'hersteller'
p3665
aS'scrip'
p3666
aS'commentator'
p3667
aS'prime minister'
p3668
aS'rep'
p3669
aS'red'
p3670
aS'franc'
p3671
aS'frank'
p3672
aS'nike'
p3673
aS'deployment'
p3674
aS'halifax'
p3675
aS'blackstone'
p3676
aS'embargo'
p3677
aS'biotechnology'
p3678
aS'generale'
p3679
aS'cboe volatility index'
p3680
aS'contamination'
p3681
aS'turnaround plan'
p3682
aS'cooper'
p3683
aS'ice'
p3684
aS'christmas'
p3685
aS'espionage'
p3686
aS'ict'
p3687
aS'sept'
p3688
aS'heat'
p3689
aS'counsel'
p3690
aS'substitute'
p3691
aS'morale'
p3692
aS'chocolate'
p3693
aS'razak'
p3694
aS'zu den produkten gehoren beratungsleistungen fur hard'
p3695
aS'pole'
p3696
aVdebt market
p3697
aS'health care'
p3698
aS'dgap'
p3699
aS'exodus'
p3700
aS'deepwater'
p3701
aS'associated'
p3702
aS'south china sea'
p3703
aS'drinking'
p3704
aS'readiness'
p3705
aS'darin haben'
p3706
aS'nfl'
p3707
aVeu election
p3708
aVasset price
p3709
aS'nov'
p3710
aS'baggage'
p3711
aS'partnerhinwei'
p3712
aS'tree'
p3713
aS'honda'
p3714
aS'worldwide developers conference'
p3715
aS'apple inc'
p3716
aS'planner'
p3717
aVbusiness activity
p3718
aS'cancellation'
p3719
aVspecie
p3720
aS'modell'
p3721
aVpolicy rate
p3722
aS'pershing'
p3723
aS'gdp growth'
p3724
aS'dji'
p3725
aS'air force'
p3726
aS'mursi'
p3727
aS'merit'
p3728
aS'feedback'
p3729
aS'ahmad'
p3730
aS'future growth'
p3731
aS'spotlight'
p3732
aVservice industry
p3733
aS'detention'
p3734
aS'children'
p3735
aVstreet protest
p3736
aS'castle'
p3737
aS'quartal'
p3738
aS'aberdeen'
p3739
aS'vergleich'
p3740
aS'wahrend'
p3741
aS'admission'
p3742
aS'colorado'
p3743
aS'refinancing'
p3744
aS'discounting'
p3745
aS'assembly'
p3746
aS'casino'
p3747
aS'midday'
p3748
aVdie auszeichnung de schweizer isc bt ag partners advanis mit dem sapvar
p3749
aS'vouch'
p3750
aS'roberts'
p3751
aS'wwwiscag'
p3752
aS'brink'
p3753
aS'juan'
p3754
aS'outbreak'
p3755
aS'euro zone economy'
p3756
aS'dazu'
p3757
aS'daughter'
p3758
aS'negative'
p3759
aS'asset class'
p3760
aS'america merrill lynch'
p3761
aS'sehen'
p3762
aS'schick'
p3763
aS'convertible'
p3764
aS'aig'
p3765
aS'socialist'
p3766
aS'investment officer'
p3767
aS'rationale'
p3768
aS'uk government'
p3769
aS'sri'
p3770
aS'groundwork'
p3771
aS'deterioration'
p3772
aS'syria'
p3773
aS'prediction'
p3774
aS'ouster'
p3775
aVopinion poll
p3776
aS'confidentiality'
p3777
aS'angespannten'
p3778
aS'imbalance'
p3779
aS'thomson reuters'
p3780
aS'snapshot'
p3781
aS'ecosystem'
p3782
aS'freeze'
p3783
aS'kings'
p3784
aS'inhalt'
p3785
aVapple share
p3786
aS'secretarygeneral'
p3787
aS'munich'
p3788
aS'imperial'
p3789
aS'bln'
p3790
aS'economics'
p3791
aS'navy'
p3792
aS'investment banking'
p3793
aS'mini'
p3794
aS'principle'
p3795
aS'disney'
p3796
aS'mukesh'
p3797
aS'human'
p3798
aS'character'
p3799
aS'petersburg'
p3800
aS'suggestion'
p3801
aS'johnson'
p3802
aS'latin'
p3803
aS'jackson'
p3804
aS'keith'
p3805
aS'corner'
p3806
aS'expectations'
p3807
aS'credit card'
p3808
aS'cboe'
p3809
aS'titan'
p3810
aS'chuck'
p3811
aS'pioneer'
p3812
aS'syrian'
p3813
aS'legislator'
p3814
aS'mediation'
p3815
aS'genuity'
p3816
aS'immigration'
p3817
aS'piper'
p3818
aS'decrease'
p3819
aS'kundenbasi'
p3820
aS'implementierung der losung estafo'
p3821
aS'publication'
p3822
aS'matt'
p3823
aS'math'
p3824
aS'asean'
p3825
aS'bhp billiton'
p3826
aS'complexity'
p3827
aS'fitness'
p3828
aS'yang'
p3829
aS'habit'
p3830
aS'freie'
p3831
aS'jennifer'
p3832
aS'llp'
p3833
aS'coop'
p3834
aS'cyber'
p3835
aS'health care verbreitert'
p3836
aS'bullion'
p3837
aS'oklahoma'
p3838
aS'market strategist'
p3839
aS'array'
p3840
aS'marathon'
p3841
aS'right thing'
p3842
aS'embassy'
p3843
aS'kennedy'
p3844
aS'gary'
p3845
aS'smoking'
p3846
aS'takeover offer'
p3847
aS'handout'
p3848
aS'affiliate'
p3849
aVmarket capitalization
p3850
aS'asda'
p3851
aS'plunge'
p3852
aS'graham'
p3853
aS'tesco'
p3854
aS'backbone'
p3855
aS'narrative'
p3856
aS'account deficit'
p3857
aS'ipod'
p3858
aS'philip'
p3859
aS'geraten'
p3860
aS'isolation'
p3861
aS'bundesbank'
p3862
aS'walt'
p3863
aS'nickel'
p3864
aS'squeeze'
p3865
aS'specialise'
p3866
aS'outskirt'
p3867
aS'fidelity'
p3868
aS'multibillion'
p3869
aS'cushion'
p3870
aS'quest'
p3871
aS'disagreement'
p3872
aS'jakarta'
p3873
aS'fund manager'
p3874
aS'laundry'
p3875
aS'fabian'
p3876
aS'weitere'
p3877
aS'prayuth'
p3878
aS'residence'
p3879
aS'stretch'
p3880
aS'constituency'
p3881
aS'surveillance'
p3882
aVasset manager
p3883
aS'recruitment'
p3884
aS'lehman'
p3885
aS'creator'
p3886
aS'gdp data'
p3887
aS'production capacity'
p3888
aS'aerospace'
p3889
aS'demnach'
p3890
aS'motorcycle'
p3891
aS'viewer'
p3892
aVstock future
p3893
aS'layoff'
p3894
aS'risk appetite'
p3895
aS'garage'
p3896
aS'concession'
p3897
aS'monetary policy committee'
p3898
aS'gregorio'
p3899
aS'great recession'
p3900
aS'steam'
p3901
aS'new orleans'
p3902
aS'cybersecurity'
p3903
aS'horizon'
p3904
aS'dance'
p3905
aS'inauguration'
p3906
aS'traction'
p3907
aS'infosy'
p3908
aS'member state'
p3909
aS'latin america'
p3910
aS'cent decline'
p3911
aS'oder'
p3912
aS'muslim brotherhood'
p3913
aS'determination'
p3914
aS'ubermittelt'
p3915
aS'baseline'
p3916
aS'coup'
p3917
aS'lassen'
p3918
aS'alassad'
p3919
aS'schedule'
p3920
aS'smallcap'
p3921
aVeuropean election
p3922
aS'tribunal'
p3923
aS'williamson'
p3924
aS'share growth'
p3925
aS'deck'
p3926
aS'symptom'
p3927
aVpolicy change
p3928
aS'doha'
p3929
aS'bourse'
p3930
aS'seattle'
p3931
aS'sentence'
p3932
aS'maharashtra'
p3933
aS'amsterdam'
p3934
aS'die'
p3935
aS'dip'
p3936
aS'soup'
p3937
aS'obama administration'
p3938
aS'main'
p3939
aS'las'
p3940
aS'rouble'
p3941
aS'reuters content'
p3942
aS'doctor'
p3943
aS'airways'
p3944
aS'payday'
p3945
aS'publisher'
p3946
aS'finland'
p3947
aS'company official'
p3948
aS'echo'
p3949
aS'joel'
p3950
aS'tyson foods inc'
p3951
aS'bei den'
p3952
aS'qualification'
p3953
aS'kitkat'
p3954
aS'beat'
p3955
aS'bear'
p3956
aS'merchant'
p3957
aS'clothe'
p3958
aS'formation'
p3959
aS'anderson'
p3960
aS'job growth'
p3961
aS'properties'
p3962
aS'flagship'
p3963
aS'midnight'
p3964
aS'hacker'
p3965
aS'middleman'
p3966
aS'jan paschal'
p3967
aS'unternehmen'
p3968
aS'conversion'
p3969
aS'ssd'
p3970
aVgas price
p3971
aS'verliefen'
p3972
aS'cambridge'
p3973
aS'runoff'
p3974
aS'scientist'
p3975
aVsale figure
p3976
aS'headache'
p3977
aS'treasurer'
p3978
aS'double'
p3979
aS'achievement'
p3980
aS'adjustment'
p3981
aS'kuroda'
p3982
aS'landslide victory'
p3983
aVconflict 
p3984
aS'adrian'
p3985
aS'chevrolet'
p3986
aS'happiness'
p3987
aS'mark carney'
p3988
aS'leak'
p3989
aS'leap'
p3990
aS'schlagwort'
p3991
aS'spielt'
p3992
aS'isc business technology'
p3993
aS'cooking'
p3994
aS'der emittent  herausgeber verantwortlichdie dgap distributionsservices umfassen gesetzliche meldepflichten'
p3995
aS'ukraine crisis'
p3996
aS'chevron'
p3997
aS'rick'
p3998
aS'rich'
p3999
aS'rice'
p4000
aS'government debt'
p4001
aS'suspension'
p4002
aS'ons'
p4003
aS'broadcom'
p4004
aS'manufacturing data'
p4005
aS'berichtet'
p4006
aS'small'
p4007
aS'mineworkers'
p4008
aS'testament'
p4009
aVeuropean market
p4010
aS'vor'
p4011
aS'emergence'
p4012
aS'bjpled nda'
p4013
aS'contributor'
p4014
aS'topline'
p4015
aS'maturity'
p4016
aS'baby'
p4017
aS'swearingin'
p4018
aS'festival'
p4019
aS'galaxy'
p4020
aS'shanghaibased'
p4021
aS'cancer'
p4022
aS'paulo'
p4023
aS'identity'
p4024
aS'mozambique'
p4025
aS'lifestyle'
p4026
aS'documentary'
p4027
aS'massachusetts'
p4028
aS'lisa shumaker'
p4029
aS'hang seng'
p4030
aS'plot'
p4031
aS'penetration'
p4032
aS'explanation'
p4033
aS'previous'
p4034
aS'diese'
p4035
aS'abuja'
p4036
aS'hang'
p4037
aS'jose'
p4038
aS'josh'
p4039
aS'conservation'
p4040
aS'hdfc'
p4041
aS'beratungsleistungen'
p4042
aS'mercedes'
p4043
aS'belgium'
p4044
aS'besitzt'
p4045
aS'todd'
p4046
aS'viability'
p4047
aS'instagram'
p4048
aS'oecd'
p4049
aS'photoshop'
p4050
aS'ashanti'
p4051
aS'greg'
p4052
aS'retaliation'
p4053
aS'guide'
p4054
aS'pack'
p4055
aS'premarket trade'
p4056
aVexport order
p4057
aVproperty price
p4058
aS'nightmare'
p4059
aS'tata steel'
p4060
aS'library'
p4061
aS'hindustan'
p4062
aS'niche'
p4063
aS'nicht'
p4064
aS'myanmar'
p4065
aS'cushing'
p4066
aS'venezuela'
p4067
aS'import duty'
p4068
aVjob cut
p4069
aS'basic'
p4070
aS'basin'
p4071
aS'zuma'
p4072
aS'modi government'
p4073
aS'graft'
p4074
aS'freddie'
p4075
aS'basket'
p4076
aS'monitor'
p4077
aS'memo'
p4078
aS'beta'
p4079
aS'executive officer'
p4080
aS'sound'
p4081
aS'strait'
p4082
aS'strain'
p4083
aS'alex'
p4084
aS'kumar'
p4085
aS'neighbouring'
p4086
aS'robinson'
p4087
aS'lisbon'
p4088
aS'corridor'
p4089
aS'stabilization'
p4090
aS'world economy'
p4091
aS'planet'
p4092
aVcommodity market
p4093
aS'itune'
p4094
aS'talent'
p4095
aS'trading range'
p4096
aS'nobody'
p4097
aS'communist'
p4098
aS'denis'
p4099
aS'smart'
p4100
aS'blue'
p4101
aS'imf'
p4102
aS'herald'
p4103
aS'researcher'
p4104
aS'spite'
p4105
aVexchange rate
p4106
aS'buyback'
p4107
aS'rumor'
p4108
aS'abdel'
p4109
aS'hsh'
p4110
aS'bats'
p4111
aS'pork'
p4112
aS'islamic'
p4113
aS'representation'
p4114
aS'jonathan oatis'
p4115
aS'arvind'
p4116
aS'pilot'
p4117
aS'inability'
p4118
aS'escalation'
p4119
aS'cold war'
p4120
aS'fortnight'
p4121
aS'rifle'
p4122
aS'wilson'
p4123
aS'future course'
p4124
aS'fertilizer'
p4125
aS'folk'
p4126
aS'writer'
p4127
aS'campaigner'
p4128
aS'vodafone'
p4129
aS'tenant'
p4130
aS'collaboration'
p4131
aS'bhel'
p4132
aS'twitter inc'
p4133
aS'jeremy'
p4134
aS'dell'
p4135
aS'subindex'
p4136
aS'charter'
p4137
aS'geneva'
p4138
aVmedium report
p4139
aS'fox'
p4140
aS'quantity'
p4141
aS'forefront'
p4142
aS'positive'
p4143
aS'potter'
p4144
aS'rangebound'
p4145
aVeuropean equity
p4146
aVnet sale
p4147
aS'deduction'
p4148
aS'lebanon'
p4149
aS'nurse'
p4150
aS'durch'
p4151
aS'gallon'
p4152
aS'mexican'
p4153
aS'veroffentlicht'
p4154
aS'krankenhau'
p4155
aS'stephanie'
p4156
aS'betterranked'
p4157
aS'zacks consensus estimate'
p4158
aS'rollout'
p4159
aS'manchester'
p4160
aS'reit'
p4161
aS'mitsui'
p4162
aS'chinese government'
p4163
aS'power generation'
p4164
aS'replacement'
p4165
aS'losung'
p4166
aS'tragedy'
p4167
aS'indictment'
p4168
aS'the'
p4169
aS'shareholder value'
p4170
aS'bpd'
p4171
aS'dilemma'
p4172
aS'reconciliation'
p4173
aS'liability'
p4174
aS'revolution'
p4175
aS'spx'
p4176
aS'spy'
p4177
aS'spa'
p4178
aS'servant'
p4179
aS'fixedincome'
p4180
aS'editorial'
p4181
aS'execution'
p4182
aS'raghuram'
p4183
aS'trailer'
p4184
aS'direkt'
p4185
aS'clipper'
p4186
aS'pilgrim'
p4187
aS'jpm'
p4188
aS'jpy'
p4189
aS'faith'
p4190
aS'pressemitteilungen'
p4191
aS'businessman'
p4192
aS'legacy'
p4193
aS'jersey'
p4194
aS'minimise'
p4195
aVpension fund
p4196
aVoil price
p4197
aS'nato'
p4198
aS'prorussian'
p4199
aS'twist'
p4200
aS'keyboard'
p4201
aS'rhetoric'
p4202
aS'triumph'
p4203
aVsale growth
p4204
aS'medical'
p4205
aS'playstation'
p4206
aS'allerding'
p4207
aS'continent'
p4208
aS'vorjahr'
p4209
aVislamist group
p4210
aS'new jersey'
p4211
aS'ford'
p4212
aS'fort'
p4213
aS'veroffentlichung'
p4214
aVmany investor
p4215
aS'thomson reuters data'
p4216
aS'google inc'
p4217
aS'jain'
p4218
aS'pump'
p4219
aS'barry'
p4220
aS'barra'
p4221
aVbeeinflusst wurde da ergebnis vor allem von umsatzruckgangen im angespannten schweizer markt
p4222
aS'press conference'
p4223
aVappeal court
p4224
aS'paint'
p4225
aS'nasional'
p4226
aS'secret'
p4227
aS'fun'
p4228
aS'landmark'
p4229
aS'back'
p4230
aS'query'
p4231
aS'cattle'
p4232
aS'baker'
p4233
aS'encounter'
p4234
aS'parcel'
p4235
aS'market cap'
p4236
aS'expo'
p4237
aS'coin'
p4238
aS'treaty'
p4239
aS'kingfisher'
p4240
aS'chizu'
p4241
aS'verwirklicht'
p4242
aS'swedish'
p4243
aS'apex'
p4244
aS'twtr'
p4245
aS'prostitution'
p4246
aS'prerecession'
p4247
aS'termination'
p4248
aS'medicare'
p4249
aS'cbi'
p4250
aS'cbs'
p4251
aS'temperature'
p4252
aS'schon'
p4253
aS'duo'
p4254
aS'due'
p4255
aS'protective life'
p4256
aS'benzinga'
p4257
aS'islamic state'
p4258
aS'infection'
p4259
aS'tyler'
p4260
aS'academy'
p4261
aS'leslie'
p4262
aS'combat'
p4263
aS'auditor'
p4264
aS'dow industrials'
p4265
aS'chairwoman'
p4266
aS'reelection'
p4267
aS'disparity'
p4268
aS'jury'
p4269
aS'redemption'
p4270
aS'konnte'
p4271
aS'natural'
p4272
aS'research report'
p4273
aS'serie'
p4274
aS'midapril'
p4275
aS'gesamtaussenumsatz'
p4276
aS'debris'
p4277
aS'large'
p4278
aS'legend'
p4279
aS'scam'
p4280
aS'schoolgirl'
p4281
aS'introduction'
p4282
aS'internal'
p4283
aS'negotiator'
p4284
aS'scratch'
p4285
aS'magic'
p4286
aS'tunnel'
p4287
aS'richmond'
p4288
aS'warren'
p4289
aS'korean'
p4290
aS'performance opportunity'
p4291
aS'louisiana'
p4292
aS'hardware'
p4293
aS'finnish'
p4294
aS'national association'
p4295
aS'lung'
p4296
aS'convergence'
p4297
aS'ing'
p4298
aS'mansion'
p4299
aS'chen'
p4300
aS'pizza'
p4301
aS'maiden'
p4302
aS'seizure'
p4303
aS'selloff'
p4304
aS'coal india'
p4305
aS'baum'
p4306
aS'fur den inhalt der mitteilung'
p4307
aVsale tax
p4308
aVtech stock
p4309
aS'southwest'
p4310
aS'arnaud'
p4311
aS'installation'
p4312
aS'noble'
p4313
aS'promoter'
p4314
aS'ibex'
p4315
aS'herausgeber'
p4316
aS'format'
p4317
aS'fomc'
p4318
aVprorussian separatist
p4319
aS'demo'
p4320
aS'market capitalisation'
p4321
aS'vessel'
p4322
aS'ear'
p4323
aS'commencement'
p4324
aS'oscar'
p4325
aS'finance minister arun jaitley'
p4326
aS'doj'
p4327
aS'alarm'
p4328
aS'dog'
p4329
aS'jurisdiction'
p4330
aS'subscriptionbased'
p4331
aS'jp morgan'
p4332
aS'trading partner'
p4333
aS'neck'
p4334
aS'shield'
p4335
aS'affordable'
p4336
aS'workshop'
p4337
aS'lok sabha election'
p4338
aS'ford motor co'
p4339
aS'harm'
p4340
aS'hard'
p4341
aS'lease'
p4342
aS'commercial'
p4343
aS'taxi'
p4344
aS'judgement'
p4345
aS'constraint'
p4346
aS'ontario'
p4347
aS'hydro'
p4348
aVtrading day
p4349
aS'jessica'
p4350
aS'fatigue'
p4351
aS'los angeles'
p4352
aS'alle'
p4353
aS'adp'
p4354
aS'punishment'
p4355
aS'hanoi'
p4356
aS'tourist'
p4357
aS'tourism'
p4358
aS'kuwait'
p4359
aS'toy'
p4360
aS'ton'
p4361
aS'botswana'
p4362
aS'api'
p4363
aS'watch'
p4364
aS'southeast'
p4365
aS'corporate news finanznachrichten'
p4366
aS'mother'
p4367
aS'civil'
p4368
aS'andhra'
p4369
aS'lump'
p4370
aS'trading activity'
p4371
aS'entrepreneurship'
p4372
aS'alan'
p4373
aS'californiabased'
p4374
aS'dudley'
p4375
aS'serious'
p4376
aS'dish'
p4377
aS'proceed'
p4378
aS'marcus'
p4379
aVpoliceman
p4380
aS'cookie'
p4381
aS'architect'
p4382
aS'hutchison'
p4383
aS'headway'
p4384
aS'navigation'
p4385
aS'circuit court'
p4386
aS'ersten'
p4387
aS'gesetzliche'
p4388
aS'adida'
p4389
aS'beige'
p4390
aS'marketingauftritt'
p4391
aS'levy'
p4392
aS'related'
p4393
aS'shell'
p4394
aS'shelf'
p4395
aS'inca'
p4396
aS'inch'
p4397
aS'advent'
p4398
aS'hague'
p4399
aS'passport'
p4400
aS'lagarde'
p4401
aS'weichen'
p4402
aS'old'
p4403
aS'elon'
p4404
aVair strike
p4405
aS'outlet'
p4406
aS'blau'
p4407
aS'fame'
p4408
aS'stranger'
p4409
aS'hollande'
p4410
aS'philadelphia'
p4411
aS'nelson'
p4412
aS'hunting'
p4413
aS'swiss bank'
p4414
aS'tory'
p4415
aS'movie'
p4416
aS'scottish'
p4417
aS'disorder'
p4418
aS'religion'
p4419
aS'slice'
p4420
aS'stabilise'
p4421
aS'suspicion'
p4422
aS'societe'
p4423
aS'architecture'
p4424
aS'elite'
p4425
aS'ferry'
p4426
aS'wwdc'
p4427
aS'executive chairman'
p4428
aS'monument'
p4429
aS'interest rate rise'
p4430
aS'chinese market'
p4431
aS'jeanclaude'
p4432
aS'right direction'
p4433
aS'envoy'
p4434
aS'government agency'
p4435
aS'weiterer'
p4436
aS'lab'
p4437
aS'davis'
p4438
aS'shelve'
p4439
aS'anniversary'
p4440
aS'implication'
p4441
aVda wachstum der anderen geschaftsbereiche blieb hinter den erwartungen zuruck
p4442
aS'nasdaq composite index'
p4443
aS'cairo'
p4444
aS'craig'
p4445
aS'oliver'
p4446
aS'bieten'
p4447
aS'bietet'
p4448
aS'testimony'
p4449
aS'involvement'
p4450
aS'appliance'
p4451
aS'moglichkeiten'
p4452
aS'enhancement'
p4453
aS'gehoren'
p4454
aS'command'
p4455
aS'jimmy dean sausage'
p4456
aS'cleaning'
p4457
aS'yuan'
p4458
aS'database'
p4459
aS'ambassador'
p4460
aS'medienarchiv unter http www'
p4461
aS'dgapnew'
p4462
aS'gilead'
p4463
aVmortgage rate
p4464
aS'werden'
p4465
aS'rock'
p4466
aS'westminster'
p4467
aS'ftseurofirst'
p4468
aS'afternoon trading'
p4469
aVchinese authority
p4470
aS'sideline'
p4471
aS'capitalise'
p4472
aS'capitalism'
p4473
aS'vancouver'
p4474
aS'grade'
p4475
aS'chartered'
p4476
aS'ashok'
p4477
aS'tolerance'
p4478
aS'refinancing rate'
p4479
aS'indian ocean'
p4480
aS'warsaw'
p4481
aS'national front'
p4482
aS'bloomberg news'
p4483
aS'supply management'
p4484
aS'veroffentlichten'
p4485
aS'spinoff'
p4486
aS'remuneration'
p4487
aS'demonstrator'
p4488
aS'agricole'
p4489
aS'sergei'
p4490
aVasian share
p4491
aS'meltdown'
p4492
aS'flurry'
p4493
aS'gas production'
p4494
aS'drama'
p4495
aS'shinzo'
p4496
aS'sdn'
p4497
aS'der chromeausgabe fur den kachelmodus'
p4498
aS'depression'
p4499
aS'tab'
p4500
aS'gear'
p4501
aS'text'
p4502
aS'cos'
p4503
aS'ios'
p4504
aS'ion'
p4505
aS'heel'
p4506
aS'connecticut'
p4507
aS'perception'
p4508
aS'revival'
p4509
aS'pope'
p4510
aS'queen'
p4511
aS'mahmoud'
p4512
aS'karen'
p4513
aS'charlie'
p4514
aS'cape'
p4515
aS'respondent'
p4516
aS'underperformance'
p4517
aS'kent'
p4518
aS'accommodation'
p4519
aS'soriot'
p4520
aS'pressemitteilungerste'
p4521
aS'amcu'
p4522
aS'championship'
p4523
aS'datuk'
p4524
aS'nbc'
p4525
aS'nba'
p4526
aS'nhtsa'
p4527
aS'milestone'
p4528
aVinflation rate
p4529
aS'canaccord'
p4530
aS'recording'
p4531
aS'prof'
p4532
aS'subprime'
p4533
aS'netflix inc'
p4534
aS'panic'
p4535
aS'trap'
p4536
aS'dent'
p4537
aS'denn'
p4538
aS'norway'
p4539
aS'adoption'
p4540
aS'novarti'
p4541
aS'maize'
p4542
a.